; generated by ARM C/C++ Compiler, 5.03 [Build 76]
; commandline ArmCC [--c99 --list --debug -c --asm --interleave -o.\build\dsp_app.o --asm_dir=.\build\ --list_dir=.\build\ --depend=.\build\dsp_app.d --cpu=Cortex-M4.fp --apcs=interwork -O0 -I.\FreeRTOS\include -I.\inc -I.\startup -I.\driverlib -I.\Application -I.\FreeRTOS\portable -I.\Task -I.\Driver -I.\web -I.\third_party\lwip-1.4.1\src\include -I.\third_party\fatfs -I.\third_party\lwip-1.4.1\apps\httpserver_raw -I.\third_party\lwip-1.4.1\ports\tiva-tm4c129\include -I.\third_party\lwip-1.4.1\ports\tiva-tm4c129\include\arch -I.\third_party\lwip-1.4.1\src\include\ipv4 -I..\MCU -I.\third_party\lwip-1.4.1\apps -I.\third_party -I.\Upnp -I.\Dsp -ID:\Keil\ARM\RV31\INC -ID:\Keil\ARM\CMSIS\Include -ID:\Keil\ARM\Inc\TI\TM4C129 -Drvmdk -DPART_TM4C129XNCZAD -DRTOS_FREERTOS -DTARGET_IS_SNOWFLAKE_RA0 -DUSE_LWIP -DTM4C129ENCPDT --omf_browse=.\build\dsp_app.crf Application\dsp_app.c]
                          THUMB

                          AREA ||.text||, CODE, READONLY, ALIGN=2

                  dsp_master_vol_set PROC
;;;35     
;;;36     void dsp_master_vol_set(int gain)
000000  e92d41f0          PUSH     {r4-r8,lr}
;;;37     {
000004  4606              MOV      r6,r0
;;;38     	uint8 index;
;;;39     	uint32 RegAddr = 0;
000006  2500              MOVS     r5,#0
;;;40       uint32 RegValue=0;
000008  2700              MOVS     r7,#0
;;;41     	
;;;42     	index = MASTER_VOL_INDEX(gain);
00000a  f1c6000c          RSB      r0,r6,#0xc
00000e  f1c00035          RSB      r0,r0,#0x35
000012  b2c4              UXTB     r4,r0
;;;43     	
;;;44     	OSAL_ASSERT(index < MASTER_VOL_MAX_INDEX);
000014  2c35              CMP      r4,#0x35
000016  d306              BCC      |L1.38|
000018  4aeb              LDR      r2,|L1.968|
00001a  a1ec              ADR      r1,|L1.972|
00001c  a0f3              ADR      r0,|L1.1004|
00001e  f7fffffe          BL       s_printf
000022  bf00              NOP      
                  |L1.36|
000024  e7fe              B        |L1.36|
                  |L1.38|
;;;45     	
;;;46     	RegAddr = (_g_1_Master_Volume | 0xF0000000);
000026  4df9              LDR      r5,|L1.1036|
;;;47     	RegValue = c_master_gain[index];
000028  48f9              LDR      r0,|L1.1040|
00002a  f8507024          LDR      r7,[r0,r4,LSL #2]
;;;48     	
;;;49     	SYS_TRACE("RegValue = %x\r\n", RegValue);
00002e  4639              MOV      r1,r7
000030  a0f8              ADR      r0,|L1.1044|
000032  f7fffffe          BL       s_printf
;;;50     	Dsp0_WriteRegister(RegAddr,RegValue);
000036  4639              MOV      r1,r7
000038  4628              MOV      r0,r5
00003a  f7fffffe          BL       Dsp0_WriteRegister
;;;51     	
;;;52     	/*mute RCA*/
;;;53     	if(index == 0){
00003e  b96c              CBNZ     r4,|L1.92|
;;;54     		RegAddr = (_g_2_Output_level | 0xF0000000);
000040  4df2              LDR      r5,|L1.1036|
000042  3d0b              SUBS     r5,r5,#0xb
;;;55     	  RegValue = c_master_gain[index];
000044  48f2              LDR      r0,|L1.1040|
000046  f8507024          LDR      r7,[r0,r4,LSL #2]
;;;56     		
;;;57     		Dsp0_WriteRegister(RegAddr,RegValue);
00004a  4639              MOV      r1,r7
00004c  4628              MOV      r0,r5
00004e  f7fffffe          BL       Dsp0_WriteRegister
;;;58     		Dsp0_WriteRegister(RegAddr+1,RegValue);
000052  4639              MOV      r1,r7
000054  1c68              ADDS     r0,r5,#1
000056  f7fffffe          BL       Dsp0_WriteRegister
00005a  e00a              B        |L1.114|
                  |L1.92|
;;;59     	}else{
;;;60     		RegAddr = (_g_2_Output_level | 0xF0000000);
00005c  4deb              LDR      r5,|L1.1036|
00005e  3d0b              SUBS     r5,r5,#0xb
;;;61     	 // RegValue = 0x23165907;0.8
;;;62     		RegValue = 0x211fe21d;//0.3
000060  4ff0              LDR      r7,|L1.1060|
;;;63     		Dsp0_WriteRegister(RegAddr,RegValue);
000062  4639              MOV      r1,r7
000064  4628              MOV      r0,r5
000066  f7fffffe          BL       Dsp0_WriteRegister
;;;64     		Dsp0_WriteRegister(RegAddr+1,RegValue);
00006a  4639              MOV      r1,r7
00006c  1c68              ADDS     r0,r5,#1
00006e  f7fffffe          BL       Dsp0_WriteRegister
                  |L1.114|
;;;65     	}
;;;66     	
;;;67     }
000072  e8bd81f0          POP      {r4-r8,pc}
;;;68     
                          ENDP

                  dsp_subLpFre_set PROC
;;;69     
;;;70     void dsp_subLpFre_set(uint8 slope, uint16 freq, uint8 num, int offset1, int offset2)
000076  e92d4ff8          PUSH     {r3-r11,lr}
;;;71     {
00007a  4681              MOV      r9,r0
00007c  468a              MOV      r10,r1
00007e  4693              MOV      r11,r2
000080  461e              MOV      r6,r3
000082  f8dd8028          LDR      r8,[sp,#0x28]
;;;72     	uint8 index, j;
;;;73     	uint32  RegAddr;
;;;74     	uint32  RegValue;
;;;75     	
;;;76       for(index = 0; index < num; index++)
000086  2700              MOVS     r7,#0
000088  e039              B        |L1.254|
                  |L1.138|
;;;77     	{
;;;78     		if(slope == FILTER_SLOPE_48DB)
00008a  f1b90f03          CMP      r9,#3
00008e  d108              BNE      |L1.162|
;;;79     		{
;;;80           RegValue = filter_48db[freq][index];
000090  eb0a004a          ADD      r0,r10,r10,LSL #1
000094  49e4              LDR      r1,|L1.1064|
000096  eb011000          ADD      r0,r1,r0,LSL #4
00009a  f8500027          LDR      r0,[r0,r7,LSL #2]
00009e  9000              STR      r0,[sp,#0]
0000a0  e016              B        |L1.208|
                  |L1.162|
;;;81     		}
;;;82     	  else if(slope == FILTER_SLOPE_24DB)
0000a2  f1b90f02          CMP      r9,#2
0000a6  d108              BNE      |L1.186|
;;;83     	  {
;;;84     			RegValue = filter_24db[freq][index];
0000a8  eb0a004a          ADD      r0,r10,r10,LSL #1
0000ac  49df              LDR      r1,|L1.1068|
0000ae  eb0100c0          ADD      r0,r1,r0,LSL #3
0000b2  f8500027          LDR      r0,[r0,r7,LSL #2]
0000b6  9000              STR      r0,[sp,#0]
0000b8  e00a              B        |L1.208|
                  |L1.186|
;;;85     		}
;;;86     		else if(slope == FILTER_SLOPE_12DB)
0000ba  f1b90f01          CMP      r9,#1
0000be  d107              BNE      |L1.208|
;;;87     		{
;;;88     		  RegValue = filter_12db[freq][index];
0000c0  eb0a004a          ADD      r0,r10,r10,LSL #1
0000c4  49da              LDR      r1,|L1.1072|
0000c6  eb010080          ADD      r0,r1,r0,LSL #2
0000ca  f8500027          LDR      r0,[r0,r7,LSL #2]
0000ce  9000              STR      r0,[sp,#0]
                  |L1.208|
;;;89     		}
;;;90     			 
;;;91     		RegAddr = (_a_1_LP_Sub_48db | 0xf0000000) + index ;
0000d0  48ce              LDR      r0,|L1.1036|
0000d2  383b              SUBS     r0,r0,#0x3b
0000d4  183c              ADDS     r4,r7,r0
;;;92     		SYS_TRACE("will set reg0x[%x] and reg0x[%x] val=0x[%x]\n", RegAddr + offset1,RegAddr + offset2, RegValue);
0000d6  eb040208          ADD      r2,r4,r8
0000da  19a1              ADDS     r1,r4,r6
0000dc  a0d5              ADR      r0,|L1.1076|
0000de  9b00              LDR      r3,[sp,#0]
0000e0  f7fffffe          BL       s_printf
;;;93     		Dsp0_WriteRegister(RegAddr + offset1,RegValue);
0000e4  19a0              ADDS     r0,r4,r6
0000e6  9900              LDR      r1,[sp,#0]
0000e8  f7fffffe          BL       Dsp0_WriteRegister
;;;94     		if(offset1 != offset2){
0000ec  4546              CMP      r6,r8
0000ee  d004              BEQ      |L1.250|
;;;95     			Dsp0_WriteRegister(RegAddr + offset2,RegValue);
0000f0  eb040008          ADD      r0,r4,r8
0000f4  9900              LDR      r1,[sp,#0]
0000f6  f7fffffe          BL       Dsp0_WriteRegister
                  |L1.250|
0000fa  1c78              ADDS     r0,r7,#1              ;76
0000fc  b2c7              UXTB     r7,r0                 ;76
                  |L1.254|
0000fe  455f              CMP      r7,r11                ;76
000100  dbc3              BLT      |L1.138|
;;;96     		}
;;;97     	 }	
;;;98     	 if(slope == FILTER_SLOPE_24DB){  
000102  f1b90f02          CMP      r9,#2
000106  d137              BNE      |L1.376|
;;;99     		    for(j = index; j < 2*index; j++)
000108  463d              MOV      r5,r7
00010a  e031              B        |L1.368|
                  |L1.268|
;;;100    				{
;;;101    						if(j % 3 == 0)
00010c  2003              MOVS     r0,#3
00010e  fb95f1f0          SDIV     r1,r5,r0
000112  fb005011          MLS      r0,r0,r1,r5
000116  b910              CBNZ     r0,|L1.286|
;;;102    						{
;;;103    							  RegValue = 0;
000118  2000              MOVS     r0,#0
00011a  9000              STR      r0,[sp,#0]
00011c  e011              B        |L1.322|
                  |L1.286|
;;;104    						}
;;;105    						else if(j % 3 == 1)
00011e  2003              MOVS     r0,#3
000120  fb95f1f0          SDIV     r1,r5,r0
000124  fb005011          MLS      r0,r0,r1,r5
000128  2801              CMP      r0,#1
00012a  d107              BNE      |L1.316|
;;;106    						{  
;;;107    							 RegValue = filter_24db[freq][1];
00012c  eb0a004a          ADD      r0,r10,r10,LSL #1
000130  49be              LDR      r1,|L1.1068|
000132  eb0100c0          ADD      r0,r1,r0,LSL #3
000136  6840              LDR      r0,[r0,#4]
000138  9000              STR      r0,[sp,#0]
00013a  e002              B        |L1.322|
                  |L1.316|
;;;108    						}
;;;109    						else
;;;110    						{
;;;111    							 RegValue = 0xFFFFFFFF;  
00013c  f04f30ff          MOV      r0,#0xffffffff
000140  9000              STR      r0,[sp,#0]
                  |L1.322|
;;;112    						}
;;;113    						
;;;114    						RegAddr = (_a_1_LP_Sub_48db | 0xf0000000) + j ;
000142  48b2              LDR      r0,|L1.1036|
000144  383b              SUBS     r0,r0,#0x3b
000146  182c              ADDS     r4,r5,r0
;;;115    						SYS_TRACE("will set reg0x[%x] and reg0x[%x] val=0x[%x]\n", RegAddr + offset1,RegAddr + offset2, RegValue);
000148  eb040208          ADD      r2,r4,r8
00014c  19a1              ADDS     r1,r4,r6
00014e  a0b9              ADR      r0,|L1.1076|
000150  9b00              LDR      r3,[sp,#0]
000152  f7fffffe          BL       s_printf
;;;116    						Dsp0_WriteRegister(RegAddr + offset1,RegValue);
000156  19a0              ADDS     r0,r4,r6
000158  9900              LDR      r1,[sp,#0]
00015a  f7fffffe          BL       Dsp0_WriteRegister
;;;117    						if(offset1 != offset2){
00015e  4546              CMP      r6,r8
000160  d004              BEQ      |L1.364|
;;;118    							Dsp0_WriteRegister(RegAddr + offset2,RegValue);
000162  eb040008          ADD      r0,r4,r8
000166  9900              LDR      r1,[sp,#0]
000168  f7fffffe          BL       Dsp0_WriteRegister
                  |L1.364|
00016c  1c68              ADDS     r0,r5,#1              ;99
00016e  b2c5              UXTB     r5,r0                 ;99
                  |L1.368|
000170  0078              LSLS     r0,r7,#1              ;99
000172  42a8              CMP      r0,r5                 ;99
000174  dcca              BGT      |L1.268|
000176  e03a              B        |L1.494|
                  |L1.376|
;;;119    						}
;;;120    				}	
;;;121    	 }else if(slope == FILTER_SLOPE_12DB){
000178  f1b90f01          CMP      r9,#1
00017c  d137              BNE      |L1.494|
;;;122    		  for(j = index; j < 3*index; j++){
00017e  463d              MOV      r5,r7
000180  e031              B        |L1.486|
                  |L1.386|
;;;123    				if(j % 3 == 0)
000182  2003              MOVS     r0,#3
000184  fb95f1f0          SDIV     r1,r5,r0
000188  fb005011          MLS      r0,r0,r1,r5
00018c  b910              CBNZ     r0,|L1.404|
;;;124    				{
;;;125    					RegValue = 0;
00018e  2000              MOVS     r0,#0
000190  9000              STR      r0,[sp,#0]
000192  e011              B        |L1.440|
                  |L1.404|
;;;126    				}
;;;127    				else if(j % 3 == 1)
000194  2003              MOVS     r0,#3
000196  fb95f1f0          SDIV     r1,r5,r0
00019a  fb005011          MLS      r0,r0,r1,r5
00019e  2801              CMP      r0,#1
0001a0  d107              BNE      |L1.434|
;;;128    				{  
;;;129    					RegValue =   filter_12db[freq][1];
0001a2  eb0a004a          ADD      r0,r10,r10,LSL #1
0001a6  49a2              LDR      r1,|L1.1072|
0001a8  eb010080          ADD      r0,r1,r0,LSL #2
0001ac  6840              LDR      r0,[r0,#4]
0001ae  9000              STR      r0,[sp,#0]
0001b0  e002              B        |L1.440|
                  |L1.434|
;;;130    				}
;;;131    				else
;;;132    				{
;;;133    					RegValue = 0xFFFFFFFF;  
0001b2  f04f30ff          MOV      r0,#0xffffffff
0001b6  9000              STR      r0,[sp,#0]
                  |L1.440|
;;;134    				}	
;;;135    				RegAddr = (_a_1_LP_Sub_48db | 0xf0000000) + j ;
0001b8  4894              LDR      r0,|L1.1036|
0001ba  383b              SUBS     r0,r0,#0x3b
0001bc  182c              ADDS     r4,r5,r0
;;;136    				SYS_TRACE("will set reg0x[%x] and reg0x[%x] val=0x[%x]\n", RegAddr + offset1,RegAddr + offset2, RegValue);
0001be  eb040208          ADD      r2,r4,r8
0001c2  19a1              ADDS     r1,r4,r6
0001c4  a09b              ADR      r0,|L1.1076|
0001c6  9b00              LDR      r3,[sp,#0]
0001c8  f7fffffe          BL       s_printf
;;;137    				Dsp0_WriteRegister(RegAddr + offset1,RegValue);
0001cc  19a0              ADDS     r0,r4,r6
0001ce  9900              LDR      r1,[sp,#0]
0001d0  f7fffffe          BL       Dsp0_WriteRegister
;;;138    				if(offset1 != offset2){
0001d4  4546              CMP      r6,r8
0001d6  d004              BEQ      |L1.482|
;;;139    					Dsp0_WriteRegister(RegAddr + offset2,RegValue);
0001d8  eb040008          ADD      r0,r4,r8
0001dc  9900              LDR      r1,[sp,#0]
0001de  f7fffffe          BL       Dsp0_WriteRegister
                  |L1.482|
0001e2  1c68              ADDS     r0,r5,#1              ;122
0001e4  b2c5              UXTB     r5,r0                 ;122
                  |L1.486|
0001e6  eb070047          ADD      r0,r7,r7,LSL #1       ;122
0001ea  42a8              CMP      r0,r5                 ;122
0001ec  dcc9              BGT      |L1.386|
                  |L1.494|
;;;140    				}
;;;141    				}
;;;142    	 }
;;;143    	
;;;144    }
0001ee  e8bd8ff8          POP      {r3-r11,pc}
;;;145    
                          ENDP

                  dsp_subHpFreq_set PROC
;;;146    void dsp_subHpFreq_set(uint8 slope, uint16 freq, uint8 num, uint8 offset)
0001f2  e92d5ff0          PUSH     {r4-r12,lr}
;;;147    {
0001f6  4606              MOV      r6,r0
0001f8  460f              MOV      r7,r1
0001fa  4691              MOV      r9,r2
0001fc  469b              MOV      r11,r3
;;;148    	 uint8 index, j;
;;;149    	 uint32  RegAddr;
;;;150    	 uint32  RegValue; 
;;;151    	
;;;152    	 for(index = 0; index < num; index++){
0001fe  2500              MOVS     r5,#0
000200  e02b              B        |L1.602|
                  |L1.514|
;;;153    		if(slope == FILTER_SLOPE_48DB)
000202  2e03              CMP      r6,#3
000204  d107              BNE      |L1.534|
;;;154    		{
;;;155    			RegValue = filter_48db[freq][index];
000206  eb070047          ADD      r0,r7,r7,LSL #1
00020a  4987              LDR      r1,|L1.1064|
00020c  eb011000          ADD      r0,r1,r0,LSL #4
000210  f850a025          LDR      r10,[r0,r5,LSL #2]
000214  e012              B        |L1.572|
                  |L1.534|
;;;156    		}
;;;157    		else if(slope == FILTER_SLOPE_24DB)
000216  2e02              CMP      r6,#2
000218  d107              BNE      |L1.554|
;;;158    		{
;;;159    		  RegValue = filter_24db[freq][index]; 
00021a  eb070047          ADD      r0,r7,r7,LSL #1
00021e  4983              LDR      r1,|L1.1068|
000220  eb0100c0          ADD      r0,r1,r0,LSL #3
000224  f850a025          LDR      r10,[r0,r5,LSL #2]
000228  e008              B        |L1.572|
                  |L1.554|
;;;160    		}
;;;161    		else if(slope == FILTER_SLOPE_12DB)
00022a  2e01              CMP      r6,#1
00022c  d106              BNE      |L1.572|
;;;162    		{
;;;163    			RegValue = filter_12db[freq][index];   
00022e  eb070047          ADD      r0,r7,r7,LSL #1
000232  497f              LDR      r1,|L1.1072|
000234  eb010080          ADD      r0,r1,r0,LSL #2
000238  f850a025          LDR      r10,[r0,r5,LSL #2]
                  |L1.572|
;;;164    		}
;;;165    		 
;;;166    		RegAddr = (_a_1_HP_Sub_48db | 0xf0000000) + index;
00023c  4873              LDR      r0,|L1.1036|
00023e  384b              SUBS     r0,r0,#0x4b
000240  eb050800          ADD      r8,r5,r0
;;;167    		SYS_TRACE("will set reg0x[%x] val=0x[%x]\n", RegAddr, RegValue);
000244  4652              MOV      r2,r10
000246  4641              MOV      r1,r8
000248  a086              ADR      r0,|L1.1124|
00024a  f7fffffe          BL       s_printf
;;;168    		Dsp0_WriteRegister(RegAddr,RegValue);
00024e  4651              MOV      r1,r10
000250  4640              MOV      r0,r8
000252  f7fffffe          BL       Dsp0_WriteRegister
000256  1c68              ADDS     r0,r5,#1              ;152
000258  b2c5              UXTB     r5,r0                 ;152
                  |L1.602|
00025a  454d              CMP      r5,r9                 ;152
00025c  dbd1              BLT      |L1.514|
;;;169    	//	Dsp0_WriteRegister(RegAddr + offset,RegValue);
;;;170    	 } 
;;;171    	 
;;;172    	 if(slope == FILTER_SLOPE_24DB)
00025e  2e02              CMP      r6,#2
000260  d12e              BNE      |L1.704|
;;;173    	 {
;;;174    		   for(j = index; j < 2*index; j++)
000262  462c              MOV      r4,r5
000264  e028              B        |L1.696|
                  |L1.614|
;;;175    		 {
;;;176    			   if(j % 3 == 0)
000266  2003              MOVS     r0,#3
000268  fb94f1f0          SDIV     r1,r4,r0
00026c  fb004011          MLS      r0,r0,r1,r4
000270  b910              CBNZ     r0,|L1.632|
;;;177    				 {
;;;178    					  RegValue = 0; 
000272  f04f0a00          MOV      r10,#0
000276  e010              B        |L1.666|
                  |L1.632|
;;;179    				 }
;;;180    				 else if(j % 3 == 1)
000278  2003              MOVS     r0,#3
00027a  fb94f1f0          SDIV     r1,r4,r0
00027e  fb004011          MLS      r0,r0,r1,r4
000282  2801              CMP      r0,#1
000284  d107              BNE      |L1.662|
;;;181    				 {
;;;182    					 RegValue = filter_24db[freq][1]; 
000286  eb070047          ADD      r0,r7,r7,LSL #1
00028a  4968              LDR      r1,|L1.1068|
00028c  eb0100c0          ADD      r0,r1,r0,LSL #3
000290  f8d0a004          LDR      r10,[r0,#4]
000294  e001              B        |L1.666|
                  |L1.662|
;;;183    				 }
;;;184    				 else
;;;185    				 {
;;;186    					   RegValue = 0xFFFFFFFF;
000296  f04f3aff          MOV      r10,#0xffffffff
                  |L1.666|
;;;187    				 }
;;;188    				 
;;;189    				  RegAddr = (_a_1_HP_Sub_48db | 0xf0000000) + j;
00029a  485c              LDR      r0,|L1.1036|
00029c  384b              SUBS     r0,r0,#0x4b
00029e  eb040800          ADD      r8,r4,r0
;;;190    		      SYS_TRACE("will set reg0x[%x] val=0x[%x]\n", RegAddr, RegValue);
0002a2  4652              MOV      r2,r10
0002a4  4641              MOV      r1,r8
0002a6  a06f              ADR      r0,|L1.1124|
0002a8  f7fffffe          BL       s_printf
;;;191    		      Dsp0_WriteRegister(RegAddr,RegValue);
0002ac  4651              MOV      r1,r10
0002ae  4640              MOV      r0,r8
0002b0  f7fffffe          BL       Dsp0_WriteRegister
0002b4  1c60              ADDS     r0,r4,#1              ;174
0002b6  b2c4              UXTB     r4,r0                 ;174
                  |L1.696|
0002b8  0068              LSLS     r0,r5,#1              ;174
0002ba  42a0              CMP      r0,r4                 ;174
0002bc  dcd3              BGT      |L1.614|
0002be  e030              B        |L1.802|
                  |L1.704|
;;;192    		    //  Dsp0_WriteRegister(RegAddr + offset,RegValue);
;;;193    		 }
;;;194    	 }
;;;195    	 else if(slope == FILTER_SLOPE_12DB)
0002c0  2e01              CMP      r6,#1
0002c2  d12e              BNE      |L1.802|
;;;196    	 {
;;;197    		 for(j = index; j < 3*index; j++)
0002c4  462c              MOV      r4,r5
0002c6  e028              B        |L1.794|
                  |L1.712|
;;;198    		 {
;;;199    			   if(j % 3 == 0)
0002c8  2003              MOVS     r0,#3
0002ca  fb94f1f0          SDIV     r1,r4,r0
0002ce  fb004011          MLS      r0,r0,r1,r4
0002d2  b910              CBNZ     r0,|L1.730|
;;;200    				 {
;;;201    					  RegValue = 0; 
0002d4  f04f0a00          MOV      r10,#0
0002d8  e010              B        |L1.764|
                  |L1.730|
;;;202    				 }
;;;203    				 else if(j % 3 == 1)
0002da  2003              MOVS     r0,#3
0002dc  fb94f1f0          SDIV     r1,r4,r0
0002e0  fb004011          MLS      r0,r0,r1,r4
0002e4  2801              CMP      r0,#1
0002e6  d107              BNE      |L1.760|
;;;204    				 {
;;;205    					 RegValue = filter_12db[freq][1]; 
0002e8  eb070047          ADD      r0,r7,r7,LSL #1
0002ec  4950              LDR      r1,|L1.1072|
0002ee  eb010080          ADD      r0,r1,r0,LSL #2
0002f2  f8d0a004          LDR      r10,[r0,#4]
0002f6  e001              B        |L1.764|
                  |L1.760|
;;;206    				 }
;;;207    				 else
;;;208    				 {
;;;209    					   RegValue = 0xFFFFFFFF;
0002f8  f04f3aff          MOV      r10,#0xffffffff
                  |L1.764|
;;;210    				 }
;;;211    				 
;;;212    				  RegAddr = (_a_1_HP_Sub_48db | 0xf0000000) + j;
0002fc  4843              LDR      r0,|L1.1036|
0002fe  384b              SUBS     r0,r0,#0x4b
000300  eb040800          ADD      r8,r4,r0
;;;213    		      SYS_TRACE("will set reg0x[%x] val=0x[%x]\n", RegAddr, RegValue);
000304  4652              MOV      r2,r10
000306  4641              MOV      r1,r8
000308  a056              ADR      r0,|L1.1124|
00030a  f7fffffe          BL       s_printf
;;;214    		      Dsp0_WriteRegister(RegAddr,RegValue);
00030e  4651              MOV      r1,r10
000310  4640              MOV      r0,r8
000312  f7fffffe          BL       Dsp0_WriteRegister
000316  1c60              ADDS     r0,r4,#1              ;197
000318  b2c4              UXTB     r4,r0                 ;197
                  |L1.794|
00031a  eb050045          ADD      r0,r5,r5,LSL #1       ;197
00031e  42a0              CMP      r0,r4                 ;197
000320  dcd2              BGT      |L1.712|
                  |L1.802|
;;;215    		     // Dsp0_WriteRegister(RegAddr + offset,RegValue);
;;;216    		 } 
;;;217    	 }
;;;218    	
;;;219    }
000322  e8bd9ff0          POP      {r4-r12,pc}
;;;220    
                          ENDP

                  dsp_sub_hp_bypass PROC
;;;221    
;;;222    void dsp_sub_hp_bypass(void)
000326  b570              PUSH     {r4-r6,lr}
;;;223    {
;;;224    	 FILTER_BYPASS(_a_1_HP_Sub_48db, 0);
000328  2400              MOVS     r4,#0
00032a  e01b              B        |L1.868|
                  |L1.812|
00032c  2003              MOVS     r0,#3
00032e  fb94f1f0          SDIV     r1,r4,r0
000332  fb004011          MLS      r0,r0,r1,r4
000336  b908              CBNZ     r0,|L1.828|
000338  2600              MOVS     r6,#0
00033a  e009              B        |L1.848|
                  |L1.828|
00033c  2003              MOVS     r0,#3
00033e  fb94f1f0          SDIV     r1,r4,r0
000342  fb004011          MLS      r0,r0,r1,r4
000346  2802              CMP      r0,#2
000348  d101              BNE      |L1.846|
00034a  1ec6              SUBS     r6,r0,#3
00034c  e000              B        |L1.848|
                  |L1.846|
00034e  e007              B        |L1.864|
                  |L1.848|
000350  482e              LDR      r0,|L1.1036|
000352  384b              SUBS     r0,r0,#0x4b
000354  1825              ADDS     r5,r4,r0
000356  4631              MOV      r1,r6
000358  4628              MOV      r0,r5
00035a  f7fffffe          BL       Dsp0_WriteRegister
00035e  bf00              NOP      
                  |L1.864|
000360  1c60              ADDS     r0,r4,#1
000362  b2c4              UXTB     r4,r0
                  |L1.868|
000364  2c0c              CMP      r4,#0xc
000366  dbe1              BLT      |L1.812|
;;;225    }
000368  bd70              POP      {r4-r6,pc}
;;;226    
                          ENDP

                  dsp_sub_lp_bypass PROC
;;;227    void dsp_sub_lp_bypass(void)
00036a  b570              PUSH     {r4-r6,lr}
;;;228    {
;;;229    	 FILTER_BYPASS(_a_1_LP_Sub_48db, 0);
00036c  2400              MOVS     r4,#0
00036e  e01b              B        |L1.936|
                  |L1.880|
000370  2003              MOVS     r0,#3
000372  fb94f1f0          SDIV     r1,r4,r0
000376  fb004011          MLS      r0,r0,r1,r4
00037a  b908              CBNZ     r0,|L1.896|
00037c  2600              MOVS     r6,#0
00037e  e009              B        |L1.916|
                  |L1.896|
000380  2003              MOVS     r0,#3
000382  fb94f1f0          SDIV     r1,r4,r0
000386  fb004011          MLS      r0,r0,r1,r4
00038a  2802              CMP      r0,#2
00038c  d101              BNE      |L1.914|
00038e  1ec6              SUBS     r6,r0,#3
000390  e000              B        |L1.916|
                  |L1.914|
000392  e007              B        |L1.932|
                  |L1.916|
000394  481d              LDR      r0,|L1.1036|
000396  383b              SUBS     r0,r0,#0x3b
000398  1825              ADDS     r5,r4,r0
00039a  4631              MOV      r1,r6
00039c  4628              MOV      r0,r5
00039e  f7fffffe          BL       Dsp0_WriteRegister
0003a2  bf00              NOP      
                  |L1.932|
0003a4  1c60              ADDS     r0,r4,#1
0003a6  b2c4              UXTB     r4,r0
                  |L1.936|
0003a8  2c0c              CMP      r4,#0xc
0003aa  dbe1              BLT      |L1.880|
;;;230    }
0003ac  bd70              POP      {r4-r6,pc}
;;;231    
                          ENDP

                  dsp_lineout_hp_bypass PROC
;;;232    void dsp_lineout_hp_bypass(void)
0003ae  b570              PUSH     {r4-r6,lr}
;;;233    {
;;;234    	 FILTER_BYPASS(_a_1_HP_PT_48db,0)
0003b0  2400              MOVS     r4,#0
0003b2  e07a              B        |L1.1194|
                  |L1.948|
0003b4  2003              MOVS     r0,#3
0003b6  fb94f1f0          SDIV     r1,r4,r0
0003ba  fb004011          MLS      r0,r0,r1,r4
0003be  b908              CBNZ     r0,|L1.964|
0003c0  2600              MOVS     r6,#0
0003c2  e069              B        |L1.1176|
                  |L1.964|
0003c4  e05e              B        |L1.1156|
0003c6  0000              DCW      0x0000
                  |L1.968|
                          DCD      __FUNCTION__
                  |L1.972|
0003cc  696e6465          DCB      "index < MASTER_VOL_MAX_INDEX",0
0003d0  78203c20
0003d4  4d415354
0003d8  45525f56
0003dc  4f4c5f4d
0003e0  41585f49
0003e4  4e444558
0003e8  00      
0003e9  00                DCB      0
0003ea  00                DCB      0
0003eb  00                DCB      0
                  |L1.1004|
0003ec  28257329          DCB      "(%s) has assert failed at %s.\n",0
0003f0  20686173
0003f4  20617373
0003f8  65727420
0003fc  6661696c
000400  65642061
000404  74202573
000408  2e0a00  
00040b  00                DCB      0
                  |L1.1036|
                          DCD      0xf00000ad
                  |L1.1040|
                          DCD      c_master_gain
                  |L1.1044|
000414  52656756          DCB      "RegValue = %x\r\n",0
000418  616c7565
00041c  203d2025
000420  780d0a00
                  |L1.1060|
                          DCD      0x211fe21d
                  |L1.1064|
                          DCD      filter_48db
                  |L1.1068|
                          DCD      filter_24db
                  |L1.1072|
                          DCD      filter_12db
                  |L1.1076|
000434  77696c6c          DCB      "will set reg0x[%x] and reg0x[%x] val=0x[%x]\n",0
000438  20736574
00043c  20726567
000440  30785b25
000444  785d2061
000448  6e642072
00044c  65673078
000450  5b25785d
000454  2076616c
000458  3d30785b
00045c  25785d0a
000460  00      
000461  00                DCB      0
000462  00                DCB      0
000463  00                DCB      0
                  |L1.1124|
000464  77696c6c          DCB      "will set reg0x[%x] val=0x[%x]\n",0
000468  20736574
00046c  20726567
000470  30785b25
000474  785d2076
000478  616c3d30
00047c  785b2578
000480  5d0a00  
000483  00                DCB      0
                  |L1.1156|
000484  2003              MOVS     r0,#3
000486  fb94f1f0          SDIV     r1,r4,r0
00048a  fb004011          MLS      r0,r0,r1,r4
00048e  2802              CMP      r0,#2
000490  d101              BNE      |L1.1174|
000492  1ec6              SUBS     r6,r0,#3
000494  e000              B        |L1.1176|
                  |L1.1174|
000496  e006              B        |L1.1190|
                  |L1.1176|
000498  489a              LDR      r0,|L1.1796|
00049a  1825              ADDS     r5,r4,r0
00049c  4631              MOV      r1,r6
00049e  4628              MOV      r0,r5
0004a0  f7fffffe          BL       Dsp0_WriteRegister
0004a4  bf00              NOP      
                  |L1.1190|
0004a6  1c60              ADDS     r0,r4,#1
0004a8  b2c4              UXTB     r4,r0
                  |L1.1194|
0004aa  2c0c              CMP      r4,#0xc
0004ac  db82              BLT      |L1.948|
;;;235    	 FILTER_BYPASS(_a_1_HP_PT_48db,0x10)
0004ae  2400              MOVS     r4,#0
0004b0  e01f              B        |L1.1266|
                  |L1.1202|
0004b2  2003              MOVS     r0,#3
0004b4  fb94f1f0          SDIV     r1,r4,r0
0004b8  fb004011          MLS      r0,r0,r1,r4
0004bc  b908              CBNZ     r0,|L1.1218|
0004be  2600              MOVS     r6,#0
0004c0  e009              B        |L1.1238|
                  |L1.1218|
0004c2  2003              MOVS     r0,#3
0004c4  fb94f1f0          SDIV     r1,r4,r0
0004c8  fb004011          MLS      r0,r0,r1,r4
0004cc  2802              CMP      r0,#2
0004ce  d101              BNE      |L1.1236|
0004d0  1ec6              SUBS     r6,r0,#3
0004d2  e000              B        |L1.1238|
                  |L1.1236|
0004d4  e00b              B        |L1.1262|
                  |L1.1238|
0004d6  488b              LDR      r0,|L1.1796|
0004d8  1825              ADDS     r5,r4,r0
0004da  4631              MOV      r1,r6
0004dc  4628              MOV      r0,r5
0004de  f7fffffe          BL       Dsp0_WriteRegister
0004e2  4631              MOV      r1,r6
0004e4  f1050010          ADD      r0,r5,#0x10
0004e8  f7fffffe          BL       Dsp0_WriteRegister
0004ec  bf00              NOP      
                  |L1.1262|
0004ee  1c60              ADDS     r0,r4,#1
0004f0  b2c4              UXTB     r4,r0
                  |L1.1266|
0004f2  2c0c              CMP      r4,#0xc
0004f4  dbdd              BLT      |L1.1202|
;;;236    }
0004f6  bd70              POP      {r4-r6,pc}
;;;237    
                          ENDP

                  dsp_delay_time_set PROC
;;;238    void dsp_delay_time_set(uint8 time)
0004f8  b5f8              PUSH     {r3-r7,lr}
;;;239    {
0004fa  4604              MOV      r4,r0
;;;240    	  uint8 value[4] = {0};
0004fc  2000              MOVS     r0,#0
0004fe  9000              STR      r0,[sp,#0]
;;;241        uint8 temp;
;;;242        uint32  RegAddr;
;;;243    	  uint32  RegValue;
;;;244    
;;;245        temp = time % 10;
000500  200a              MOVS     r0,#0xa
000502  fb94f1f0          SDIV     r1,r4,r0
000506  fb004011          MLS      r0,r0,r1,r4
00050a  b2c7              UXTB     r7,r0
;;;246        if(temp) value[1] = 0x80;
00050c  b117              CBZ      r7,|L1.1300|
00050e  2080              MOVS     r0,#0x80
000510  f88d0001          STRB     r0,[sp,#1]
                  |L1.1300|
;;;247        value[2] = time / 10;
000514  200a              MOVS     r0,#0xa
000516  fb94f0f0          SDIV     r0,r4,r0
00051a  b2c0              UXTB     r0,r0
00051c  f88d0002          STRB     r0,[sp,#2]
;;;248        
;;;249        RegAddr = (0xF0000000 | _delay_value_SUB_Delay);
000520  4d78              LDR      r5,|L1.1796|
000522  3572              ADDS     r5,r5,#0x72
;;;250        RegValue = *(unsigned int *)value;
000524  9e00              LDR      r6,[sp,#0]
;;;251    
;;;252        Dsp0_WriteRegister(RegAddr,RegValue);
000526  4631              MOV      r1,r6
000528  4628              MOV      r0,r5
00052a  f7fffffe          BL       Dsp0_WriteRegister
;;;253        Dsp0_WriteRegister(RegAddr + 0x03,RegValue);
00052e  4631              MOV      r1,r6
000530  1ce8              ADDS     r0,r5,#3
000532  f7fffffe          BL       Dsp0_WriteRegister
;;;254    }
000536  bdf8              POP      {r3-r7,pc}
;;;255    
                          ENDP

                  dsp_delay_switch_to_sub PROC
;;;256    void dsp_delay_switch_to_sub(void)
000538  b570              PUSH     {r4-r6,lr}
;;;257    {
;;;258    	uint32  RegAddr = (0xF0000000 | _output_select_1_2x1_Router);
00053a  4c72              LDR      r4,|L1.1796|
00053c  3477              ADDS     r4,r4,#0x77
;;;259    	uint32  RegValue = 1;
00053e  2501              MOVS     r5,#1
;;;260    	
;;;261    	Dsp0_WriteRegister(RegAddr,RegValue);
000540  4629              MOV      r1,r5
000542  4620              MOV      r0,r4
000544  f7fffffe          BL       Dsp0_WriteRegister
;;;262    	
;;;263    	RegAddr = (0xF0000000 | _output_select_1_Dealay_Router_Sub);
000548  4c6e              LDR      r4,|L1.1796|
00054a  347f              ADDS     r4,r4,#0x7f
;;;264    	RegValue = 2;
00054c  2502              MOVS     r5,#2
;;;265    	Dsp0_WriteRegister(RegAddr,RegValue);
00054e  4629              MOV      r1,r5
000550  4620              MOV      r0,r4
000552  f7fffffe          BL       Dsp0_WriteRegister
;;;266    	
;;;267    	/*cut off line*/
;;;268    	RegAddr = (0xF0000000 | _output_select_1_Dealay_Router_Line);
000556  1fa4              SUBS     r4,r4,#6
;;;269    	RegValue = 2;
000558  bf00              NOP      
;;;270    	Dsp0_WriteRegister(RegAddr,RegValue);
00055a  4629              MOV      r1,r5
00055c  4620              MOV      r0,r4
00055e  f7fffffe          BL       Dsp0_WriteRegister
;;;271    	Dsp0_WriteRegister(RegAddr + 0x04,RegValue);
000562  4629              MOV      r1,r5
000564  1d20              ADDS     r0,r4,#4
000566  f7fffffe          BL       Dsp0_WriteRegister
;;;272    }
00056a  bd70              POP      {r4-r6,pc}
;;;273    
                          ENDP

                  dsp_delay_switch_to_line PROC
;;;274    
;;;275    void dsp_delay_switch_to_line(void)
00056c  b570              PUSH     {r4-r6,lr}
;;;276    {
;;;277    	uint32  RegAddr = (0xF0000000 | _output_select_1_2x1_Router);
00056e  4c65              LDR      r4,|L1.1796|
000570  3477              ADDS     r4,r4,#0x77
;;;278    	uint32  RegValue = 2;
000572  2502              MOVS     r5,#2
;;;279    	
;;;280    	Dsp0_WriteRegister(RegAddr,RegValue);
000574  4629              MOV      r1,r5
000576  4620              MOV      r0,r4
000578  f7fffffe          BL       Dsp0_WriteRegister
;;;281    	
;;;282    	RegAddr = (0xF0000000 | _output_select_1_Dealay_Router_Line);
00057c  1ca4              ADDS     r4,r4,#2
;;;283    	RegValue = 1;
00057e  2501              MOVS     r5,#1
;;;284    	Dsp0_WriteRegister(RegAddr,RegValue);
000580  4629              MOV      r1,r5
000582  4620              MOV      r0,r4
000584  f7fffffe          BL       Dsp0_WriteRegister
;;;285    	Dsp0_WriteRegister(RegAddr + 0x04,RegValue);
000588  4629              MOV      r1,r5
00058a  1d20              ADDS     r0,r4,#4
00058c  f7fffffe          BL       Dsp0_WriteRegister
;;;286    	
;;;287    	/*cut off sub*/
;;;288    	RegAddr = (0xF0000000 | _output_select_1_Dealay_Router_Sub);
000590  1da4              ADDS     r4,r4,#6
;;;289    	RegValue = 1;
000592  bf00              NOP      
;;;290    	
;;;291    	Dsp0_WriteRegister(RegAddr,RegValue);
000594  4629              MOV      r1,r5
000596  4620              MOV      r0,r4
000598  f7fffffe          BL       Dsp0_WriteRegister
;;;292    }
00059c  bd70              POP      {r4-r6,pc}
;;;293    
                          ENDP

                  dsp_delay_switch_off PROC
;;;294    
;;;295    void dsp_delay_switch_off(void)
00059e  b570              PUSH     {r4-r6,lr}
;;;296    {
;;;297      uint32 RegAddr = (0xF0000000 | _output_select_1_Dealay_Router_Sub);
0005a0  4c58              LDR      r4,|L1.1796|
0005a2  347f              ADDS     r4,r4,#0x7f
;;;298    	uint32 RegValue = 1;
0005a4  2501              MOVS     r5,#1
;;;299    	
;;;300    	Dsp0_WriteRegister(RegAddr,RegValue);
0005a6  4629              MOV      r1,r5
0005a8  4620              MOV      r0,r4
0005aa  f7fffffe          BL       Dsp0_WriteRegister
;;;301    	
;;;302    	RegAddr = (0xF0000000 | _output_select_1_Dealay_Router_Line);
0005ae  1fa4              SUBS     r4,r4,#6
;;;303    	RegValue = 2;
0005b0  2502              MOVS     r5,#2
;;;304    	Dsp0_WriteRegister(RegAddr,RegValue);
0005b2  4629              MOV      r1,r5
0005b4  4620              MOV      r0,r4
0005b6  f7fffffe          BL       Dsp0_WriteRegister
;;;305    	Dsp0_WriteRegister(RegAddr + 0x04,RegValue);
0005ba  4629              MOV      r1,r5
0005bc  1d20              ADDS     r0,r4,#4
0005be  f7fffffe          BL       Dsp0_WriteRegister
;;;306    }
0005c2  bd70              POP      {r4-r6,pc}
;;;307    
                          ENDP

                  dsp_eq_set_freq PROC
;;;308    void dsp_eq_set_freq(uint32 a, uint8 offset, uint8 type)
0005c4  e92d41f0          PUSH     {r4-r8,lr}
;;;309    {
0005c8  4680              MOV      r8,r0
0005ca  460d              MOV      r5,r1
0005cc  4616              MOV      r6,r2
;;;310    	 uint32 RegAddr;
;;;311    	 uint32 RegValue = a;
0005ce  4647              MOV      r7,r8
;;;312    	
;;;313    	 if(TYPE_ROOM_EQ == type){
0005d0  2e01              CMP      r6,#1
0005d2  d103              BNE      |L1.1500|
;;;314    		 RegAddr = (0xF0000000 | _a_11_1x6_PEQ_Preset) + offset;
0005d4  484b              LDR      r0,|L1.1796|
0005d6  381d              SUBS     r0,r0,#0x1d
0005d8  182c              ADDS     r4,r5,r0
0005da  e008              B        |L1.1518|
                  |L1.1500|
;;;315    	 }else if(TYPE_SUB_EQ ==type){
0005dc  2e03              CMP      r6,#3
0005de  d103              BNE      |L1.1512|
;;;316    		 RegAddr = (0xF0000000 | _a_11_1x8_PEQ_Preset) + offset;
0005e0  4848              LDR      r0,|L1.1796|
0005e2  3840              SUBS     r0,r0,#0x40
0005e4  182c              ADDS     r4,r5,r0
0005e6  e002              B        |L1.1518|
                  |L1.1512|
;;;317    	 }else{
;;;318    		 RegAddr = (0xF0000000 | _a_11_1x2_PEQ_Preset) + offset;
0005e8  4846              LDR      r0,|L1.1796|
0005ea  304b              ADDS     r0,r0,#0x4b
0005ec  182c              ADDS     r4,r5,r0
                  |L1.1518|
;;;319    	 }
;;;320    	
;;;321    	 SYS_TRACE("dsp_eq_set_freq:[%x]-[%x]\r\n", RegAddr, RegValue);
0005ee  463a              MOV      r2,r7
0005f0  4621              MOV      r1,r4
0005f2  a045              ADR      r0,|L1.1800|
0005f4  f7fffffe          BL       s_printf
;;;322    	 Dsp0_WriteRegister(RegAddr, RegValue);
0005f8  4639              MOV      r1,r7
0005fa  4620              MOV      r0,r4
0005fc  f7fffffe          BL       Dsp0_WriteRegister
;;;323    }
000600  e8bd81f0          POP      {r4-r8,pc}
;;;324    
                          ENDP

                  dsp_eq_set_gain PROC
;;;325    void dsp_eq_set_gain(uint32 g, uint8 offset, uint8 type)
000604  e92d41f0          PUSH     {r4-r8,lr}
;;;326    {
000608  4680              MOV      r8,r0
00060a  460d              MOV      r5,r1
00060c  4616              MOV      r6,r2
;;;327    	uint32 RegAddr;
;;;328    	uint32 RegValue = g;
00060e  4647              MOV      r7,r8
;;;329    	
;;;330    	if(TYPE_ROOM_EQ == type){
000610  2e01              CMP      r6,#1
000612  d103              BNE      |L1.1564|
;;;331    		 RegAddr = (0xF0000000 | _g_11_1x6_PEQ_Preset) + offset;
000614  483b              LDR      r0,|L1.1796|
000616  3811              SUBS     r0,r0,#0x11
000618  182c              ADDS     r4,r5,r0
00061a  e008              B        |L1.1582|
                  |L1.1564|
;;;332    	}else if(TYPE_SUB_EQ == type){
00061c  2e03              CMP      r6,#3
00061e  d103              BNE      |L1.1576|
;;;333    		 RegAddr = (0xF0000000 | _g_11_1x8_PEQ_Preset) + offset;
000620  4838              LDR      r0,|L1.1796|
000622  3830              SUBS     r0,r0,#0x30
000624  182c              ADDS     r4,r5,r0
000626  e002              B        |L1.1582|
                  |L1.1576|
;;;334    	 }else{
;;;335    		 RegAddr = (0xF0000000 | _g_11_1x2_PEQ_Preset) + offset;
000628  4836              LDR      r0,|L1.1796|
00062a  304f              ADDS     r0,r0,#0x4f
00062c  182c              ADDS     r4,r5,r0
                  |L1.1582|
;;;336    	 }
;;;337    
;;;338    	SYS_TRACE("dsp_eq_set_gain:[%x]-[%x]\r\n", RegAddr, RegValue);
00062e  463a              MOV      r2,r7
000630  4621              MOV      r1,r4
000632  a03c              ADR      r0,|L1.1828|
000634  f7fffffe          BL       s_printf
;;;339    	Dsp0_WriteRegister(RegAddr, RegValue);
000638  4639              MOV      r1,r7
00063a  4620              MOV      r0,r4
00063c  f7fffffe          BL       Dsp0_WriteRegister
;;;340    }
000640  e8bd81f0          POP      {r4-r8,pc}
;;;341    
                          ENDP

                  do_eq_width_filter PROC
;;;342    
;;;343    static void do_eq_width_filter(uint8 *q)
000644  b53e              PUSH     {r1-r5,lr}
;;;344    {
000646  4601              MOV      r1,r0
;;;345    	 uint8 table[] = {1,2,4,6,8,10,15,20,40,60,80,120};
000648  a53d              ADR      r5,|L1.1856|
00064a  cd38              LDM      r5,{r3-r5}
00064c  e88d0038          STM      sp,{r3-r5}
;;;346       uint8 index;
;;;347       uint8 temp;
;;;348    
;;;349       for(index = 0; index < sizeof(table); index++)
000650  2000              MOVS     r0,#0
000652  e00e              B        |L1.1650|
                  |L1.1620|
;;;350      {
;;;351    	    if(*q == table[index]) return;
000654  780b              LDRB     r3,[r1,#0]
000656  f81d4000          LDRB     r4,[sp,r0]
00065a  42a3              CMP      r3,r4
00065c  d100              BNE      |L1.1632|
                  |L1.1630|
;;;352    		  else
;;;353    			{
;;;354    				 if(*q > table[index])
;;;355     				 {
;;;356    					  temp = table[index];
;;;357    				 }					 
;;;358    			}
;;;359    				
;;;360      }
;;;361    
;;;362       *q = temp;
;;;363    }
00065e  bd3e              POP      {r1-r5,pc}
                  |L1.1632|
000660  780b              LDRB     r3,[r1,#0]            ;354
000662  f81d4000          LDRB     r4,[sp,r0]            ;354
000666  42a3              CMP      r3,r4                 ;354
000668  dd01              BLE      |L1.1646|
00066a  f81d2000          LDRB     r2,[sp,r0]            ;356
                  |L1.1646|
00066e  1c43              ADDS     r3,r0,#1              ;349
000670  b2d8              UXTB     r0,r3                 ;349
                  |L1.1650|
000672  280c              CMP      r0,#0xc               ;349
000674  d3ee              BCC      |L1.1620|
000676  700a              STRB     r2,[r1,#0]            ;362
000678  bf00              NOP      
00067a  e7f0              B        |L1.1630|
;;;364    
                          ENDP

                  dsp_eq_set_width PROC
;;;365    void dsp_eq_set_width(uint32 b, uint8 offset, uint8 type)
00067c  e92d41f0          PUSH     {r4-r8,lr}
;;;366    {
000680  4680              MOV      r8,r0
000682  460d              MOV      r5,r1
000684  4616              MOV      r6,r2
;;;367    	uint32 RegAddr;
;;;368      uint32 RegValue = b;
000686  4647              MOV      r7,r8
;;;369    	
;;;370    	if(TYPE_ROOM_EQ == type){
000688  2e01              CMP      r6,#1
00068a  d103              BNE      |L1.1684|
;;;371    		 RegAddr = (0xF0000000 | _b_11_1x6_PEQ_Preset) + offset;
00068c  481d              LDR      r0,|L1.1796|
00068e  3817              SUBS     r0,r0,#0x17
000690  182c              ADDS     r4,r5,r0
000692  e008              B        |L1.1702|
                  |L1.1684|
;;;372    	}else if(TYPE_SUB_EQ == type){
000694  2e03              CMP      r6,#3
000696  d103              BNE      |L1.1696|
;;;373    		 RegAddr = (0xF0000000 | _b_11_1x8_PEQ_Preset) + offset;
000698  481a              LDR      r0,|L1.1796|
00069a  3838              SUBS     r0,r0,#0x38
00069c  182c              ADDS     r4,r5,r0
00069e  e002              B        |L1.1702|
                  |L1.1696|
;;;374    	 }else{
;;;375    		 RegAddr = (0xF0000000 | _DspSampleRate_1x2_PEQ_Preset) + offset;
0006a0  4818              LDR      r0,|L1.1796|
0006a2  304d              ADDS     r0,r0,#0x4d
0006a4  182c              ADDS     r4,r5,r0
                  |L1.1702|
;;;376    	 }
;;;377    
;;;378      SYS_TRACE("dsp_eq_set_width:[%x]-[%x]\r\n", RegAddr, RegValue);
0006a6  463a              MOV      r2,r7
0006a8  4621              MOV      r1,r4
0006aa  a028              ADR      r0,|L1.1868|
0006ac  f7fffffe          BL       s_printf
;;;379    	Dsp0_WriteRegister(RegAddr, RegValue);
0006b0  4639              MOV      r1,r7
0006b2  4620              MOV      r0,r4
0006b4  f7fffffe          BL       Dsp0_WriteRegister
;;;380    }
0006b8  e8bd81f0          POP      {r4-r8,pc}
;;;381    
                          ENDP

                  dsp_eq_off PROC
;;;382    
;;;383    void dsp_eq_off(void)
0006bc  b570              PUSH     {r4-r6,lr}
;;;384    {
;;;385    	uint32 RegAddr = (0xF0000000 | _value_On_Off_Preset);
0006be  4c11              LDR      r4,|L1.1796|
0006c0  3482              ADDS     r4,r4,#0x82
;;;386      uint32 RegValue = 0;
0006c2  2500              MOVS     r5,#0
;;;387    	
;;;388    	Dsp0_WriteRegister(RegAddr, RegValue);
0006c4  4629              MOV      r1,r5
0006c6  4620              MOV      r0,r4
0006c8  f7fffffe          BL       Dsp0_WriteRegister
;;;389    }
0006cc  bd70              POP      {r4-r6,pc}
;;;390    
                          ENDP

                  dsp_eq_on PROC
;;;391    void dsp_eq_on(void)
0006ce  b570              PUSH     {r4-r6,lr}
;;;392    {
;;;393    	uint32 RegAddr = (0xF0000000 | _value_On_Off_Preset);
0006d0  4c0c              LDR      r4,|L1.1796|
0006d2  3482              ADDS     r4,r4,#0x82
;;;394      uint32 RegValue = 1;
0006d4  2501              MOVS     r5,#1
;;;395    	
;;;396    	Dsp0_WriteRegister(RegAddr, RegValue); 
0006d6  4629              MOV      r1,r5
0006d8  4620              MOV      r0,r4
0006da  f7fffffe          BL       Dsp0_WriteRegister
;;;397    }
0006de  bd70              POP      {r4-r6,pc}
;;;398    
                          ENDP

                  dsp_phrase_off PROC
;;;399    void dsp_phrase_off(void)
0006e0  b570              PUSH     {r4-r6,lr}
;;;400    {
;;;401    	uint32 RegAddr = (0xF0000000 | _output_select_1_Phase_Router);
0006e2  4c08              LDR      r4,|L1.1796|
0006e4  347b              ADDS     r4,r4,#0x7b
;;;402      uint32 RegValue = 1;
0006e6  2501              MOVS     r5,#1
;;;403    
;;;404      Dsp0_WriteRegister(RegAddr, RegValue); 
0006e8  4629              MOV      r1,r5
0006ea  4620              MOV      r0,r4
0006ec  f7fffffe          BL       Dsp0_WriteRegister
;;;405    }
0006f0  bd70              POP      {r4-r6,pc}
;;;406    
                          ENDP

                  dsp_phrase_on PROC
;;;407    void dsp_phrase_on(void)
0006f2  b570              PUSH     {r4-r6,lr}
;;;408    {
;;;409    	uint32 RegAddr = (0xF0000000 | _output_select_1_Phase_Router);
0006f4  4c03              LDR      r4,|L1.1796|
0006f6  347b              ADDS     r4,r4,#0x7b
;;;410      uint32 RegValue = 2;
0006f8  2502              MOVS     r5,#2
;;;411    
;;;412      Dsp0_WriteRegister(RegAddr, RegValue);  
0006fa  4629              MOV      r1,r5
0006fc  4620              MOV      r0,r4
0006fe  f7fffffe          BL       Dsp0_WriteRegister
;;;413    }
000702  bd70              POP      {r4-r6,pc}
;;;414    
                          ENDP

                  |L1.1796|
                          DCD      0xf0000042
                  |L1.1800|
000708  6473705f          DCB      "dsp_eq_set_freq:[%x]-[%x]\r\n",0
00070c  65715f73
000710  65745f66
000714  7265713a
000718  5b25785d
00071c  2d5b2578
000720  5d0d0a00
                  |L1.1828|
000724  6473705f          DCB      "dsp_eq_set_gain:[%x]-[%x]\r\n",0
000728  65715f73
00072c  65745f67
000730  61696e3a
000734  5b25785d
000738  2d5b2578
00073c  5d0d0a00
                  |L1.1856|
000740  01020406          DCB      1,2,4,6,"\b\n",15,20,"(<Px"
000744  080a0f14
000748  283c5078
                  |L1.1868|
00074c  6473705f          DCB      "dsp_eq_set_width:[%x]-[%x]\r\n",0
000750  65715f73
000754  65745f77
000758  69647468
00075c  3a5b2578
000760  5d2d5b25
000764  785d0d0a
000768  00      
000769  00                DCB      0
00076a  00                DCB      0
00076b  00                DCB      0

                          AREA ||.constdata||, DATA, READONLY, ALIGN=2

                  c_master_gain
                          DCD      0x00000000
                          DCD      0x0051eb85
                          DCD      0x005bea6e
                          DCD      0x00672194
                          DCD      0x0073b70f
                          DCD      0x0081d59e
                          DCD      0x0091ad38
                          DCD      0x00a373ae
                          DCD      0x00b76562
                          DCD      0x00cdc613
                          DCD      0x00e6e1c6
                          DCD      0x01030dc4
                          DCD      0x0122a9c2
                          DCD      0x0146211f
                          DCD      0x016dec56
                          DCD      0x019a9294
                          DCD      0x01ccab86
                          DCD      0x0204e158
                          DCD      0x0243f2fd
                          DCD      0x028ab6b4
                          DCD      0x02da1cde
                          DCD      0x03333333
                          DCD      0x03972853
                          DCD      0x04074fcb
                          DCD      0x04852697
                          DCD      0x05125831
                          DCD      0x05b0c438
                          DCD      0x066284d5
                          DCD      0x0729f5d9
                          DCD      0x0809bcc3
                          DCD      0x0904d1bd
                          DCD      0x0a1e89b1
                          DCD      0x0b5aa19b
                          DCD      0x0cbd4b3f
                          DCD      0x0e4b3b63
                          DCD      0x1009b9cf
                          DCD      0x11feb33c
                          DCD      0x1430cd74
                          DCD      0x16a77dea
                          DCD      0x196b230b
                          DCD      0x1c8520af
                          DCD      0x20000000
                          DCD      0x23e7933e
                          DCD      0x28491df1
                          DCD      0x2d3381ef
                          DCD      0x32b771ed
                          DCD      0x38e7aa38
                          DCD      0x3fd9305a
                          DCD      0x47a39a83
                          DCD      0x50615fa7
                          DCD      0x5a303166
                          DCD      0x653160eb
                          DCD      0x718a5016
                          DCD      0x7f64f07d
                  filter_12db
                          DCD      0x7f86e76b
                          DCD      0x7fffe340
                          DCD      0x00000001
                          DCD      0x7f80dc67
                          DCD      0x7fffe04e
                          DCD      0x00000001
                          DCD      0x7f7ad1ab
                          DCD      0x7fffdd37
                          DCD      0x00000001
                          DCD      0x7f74c739
                          DCD      0x7fffd9fb
                          DCD      0x00000001
                          DCD      0x7f6ebd11
                          DCD      0x7fffd69a
                          DCD      0x00000001
                          DCD      0x7f68b331
                          DCD      0x7fffd315
                          DCD      0x00000001
                          DCD      0x7f62a99b
                          DCD      0x7fffcf6a
                          DCD      0x00000001
                          DCD      0x7f5ca04e
                          DCD      0x7fffcb9b
                          DCD      0x00000001
                          DCD      0x7f56974a
                          DCD      0x7fffc7a7
                          DCD      0x00000001
                          DCD      0x7f508e8f
                          DCD      0x7fffc38f
                          DCD      0x00000001
                          DCD      0x7f4a861e
                          DCD      0x7fffbf51
                          DCD      0x00000001
                          DCD      0x7f447df6
                          DCD      0x7fffbaef
                          DCD      0x00000001
                          DCD      0x7f3e7617
                          DCD      0x7fffb668
                          DCD      0x00000001
                          DCD      0x7f386e81
                          DCD      0x7fffb1bc
                          DCD      0x00000001
                          DCD      0x7f326734
                          DCD      0x7fffaceb
                          DCD      0x00000001
                          DCD      0x7f2c6031
                          DCD      0x7fffa7f6
                          DCD      0x00000001
                          DCD      0x7f265976
                          DCD      0x7fffa2db
                          DCD      0x00000001
                          DCD      0x7f205305
                          DCD      0x7fff9d9c
                          DCD      0x00000001
                          DCD      0x7f1a4cdd
                          DCD      0x7fff9838
                          DCD      0x00000001
                          DCD      0x7f1446fe
                          DCD      0x7fff92b0
                          DCD      0x00000001
                          DCD      0x7f0e4168
                          DCD      0x7fff8d02
                          DCD      0x00000001
                          DCD      0x7f083c1a
                          DCD      0x7fff8730
                          DCD      0x00000001
                          DCD      0x7f023716
                          DCD      0x7fff8139
                          DCD      0x00000001
                          DCD      0x7efc325b
                          DCD      0x7fff7b1d
                          DCD      0x00000001
                          DCD      0x7ef62de9
                          DCD      0x7fff74dd
                          DCD      0x00000001
                          DCD      0x7ef029c0
                          DCD      0x7fff6e77
                          DCD      0x00000001
                          DCD      0x7eea25e0
                          DCD      0x7fff67ed
                          DCD      0x00000001
                          DCD      0x7ee42249
                          DCD      0x7fff613e
                          DCD      0x00000001
                          DCD      0x7ede1efb
                          DCD      0x7fff5a6a
                          DCD      0x00000001
                          DCD      0x7ed81bf6
                          DCD      0x7fff5371
                          DCD      0x00000001
                          DCD      0x7ed2193a
                          DCD      0x7fff4c54
                          DCD      0x00000001
                          DCD      0x7ecc16c7
                          DCD      0x7fff4512
                          DCD      0x00000001
                          DCD      0x7ec6149c
                          DCD      0x7fff3dab
                          DCD      0x00000001
                          DCD      0x7ec012bb
                          DCD      0x7fff361f
                          DCD      0x00000001
                          DCD      0x7eba1122
                          DCD      0x7fff2e6e
                          DCD      0x00000001
                          DCD      0x7eb40fd2
                          DCD      0x7fff2699
                          DCD      0x00000001
                          DCD      0x7eae0ecb
                          DCD      0x7fff1e9f
                          DCD      0x00000001
                          DCD      0x7ea80e0d
                          DCD      0x7fff1680
                          DCD      0x00000001
                          DCD      0x7ea20d98
                          DCD      0x7fff0e3c
                          DCD      0x00000001
                          DCD      0x7e9c0d6c
                          DCD      0x7fff05d3
                          DCD      0x00000001
                          DCD      0x7e960d88
                          DCD      0x7ffefd46
                          DCD      0x00000001
                          DCD      0x7e781259
                          DCD      0x7ffed05b
                          DCD      0x00000001
                          DCD      0x7e5a1e44
                          DCD      0x7ffe9fd9
                          DCD      0x00000001
                          DCD      0x7e3c3147
                          DCD      0x7ffe6bbe
                          DCD      0x00000001
                          DCD      0x7e1e4b60
                          DCD      0x7ffe340c
                          DCD      0x00000001
                          DCD      0x7e006c8f
                          DCD      0x7ffdf8c1
                          DCD      0x00000001
                          DCD      0x7de294d0
                          DCD      0x7ffdb9df
                          DCD      0x00000001
                          DCD      0x7dc4c423
                          DCD      0x7ffd7765
                          DCD      0x00000001
                          DCD      0x7da6fa85
                          DCD      0x7ffd3153
                          DCD      0x00000001
                          DCD      0x7d8937f6
                          DCD      0x7ffce7aa
                          DCD      0x00000001
                          DCD      0x7d6b7c73
                          DCD      0x7ffc9a68
                          DCD      0x00000001
                          DCD      0x7d4dc7fb
                          DCD      0x7ffc498f
                          DCD      0x00000001
                          DCD      0x7d301a8c
                          DCD      0x7ffbf51e
                          DCD      0x00000001
                          DCD      0x7cf4d4c2
                          DCD      0x7ffb4174
                          DCD      0x00000001
                          DCD      0x7cb9ab09
                          DCD      0x7ffa7f6b
                          DCD      0x00000001
                          DCD      0x7c7e9d52
                          DCD      0x7ff9af04
                          DCD      0x00000001
                          DCD      0x7c43ab92
                          DCD      0x7ff8d03d
                          DCD      0x00000001
                          DCD      0x7c08d5ba
                          DCD      0x7ff7e317
                          DCD      0x00000001
                          DCD      0x7bce1bbd
                          DCD      0x7ff6e793
                          DCD      0x00000001
                          DCD      0x7b937d8f
                          DCD      0x7ff5ddb0
                          DCD      0x00000001
                          DCD      0x7b58fb21
                          DCD      0x7ff4c56e
                          DCD      0x00000001
                          DCD      0x7b1e9468
                          DCD      0x7ff39ecf
                          DCD      0x00000001
                          DCD      0x7ae44955
                          DCD      0x7ff269d0
                          DCD      0x00000001
                          DCD      0x7aaa19dc
                          DCD      0x7ff12674
                          DCD      0x00000001
                          DCD      0x7a7005ef
                          DCD      0x7fefd4ba
                          DCD      0x00000001
                          DCD      0x7a360d82
                          DCD      0x7fee74a2
                          DCD      0x00000001
                          DCD      0x79fc3088
                          DCD      0x7fed062c
                          DCD      0x00000001
                          DCD      0x79c26ef3
                          DCD      0x7feb8959
                          DCD      0x00000001
                          DCD      0x7988c8b7
                          DCD      0x7fe9fe28
                          DCD      0x00000001
                          DCD      0x794f3dc7
                          DCD      0x7fe8649a
                          DCD      0x00000001
                          DCD      0x7915ce15
                          DCD      0x7fe6bcaf
                          DCD      0x00000001
                  filter_24db
                          DCD      0x7f61deb8
                          DCD      0x7fffe340
                          DCD      0x00000001
                          DCD      0x7fbe685f
                          DCD      0x7fffe340
                          DCD      0x00000001
                          DCD      0x7f59fbca
                          DCD      0x7fffe04e
                          DCD      0x00000001
                          DCD      0x7fbb21ac
                          DCD      0x7fffe04e
                          DCD      0x00000001
                          DCD      0x7f521958
                          DCD      0x7fffdd37
                          DCD      0x00000001
                          DCD      0x7fb7db0f
                          DCD      0x7fffdd37
                          DCD      0x00000001
                          DCD      0x7f4a3764
                          DCD      0x7fffd9fb
                          DCD      0x00000001
                          DCD      0x7fb49488
                          DCD      0x7fffd9fb
                          DCD      0x00000001
                          DCD      0x7f4255ec
                          DCD      0x7fffd69a
                          DCD      0x00000001
                          DCD      0x7fb14e16
                          DCD      0x7fffd69a
                          DCD      0x00000001
                          DCD      0x7f3a74f0
                          DCD      0x7fffd315
                          DCD      0x00000001
                          DCD      0x7fae07ba
                          DCD      0x7fffd315
                          DCD      0x00000001
                          DCD      0x7f329472
                          DCD      0x7fffcf6a
                          DCD      0x00000001
                          DCD      0x7faac174
                          DCD      0x7fffcf6a
                          DCD      0x00000001
                          DCD      0x7f2ab470
                          DCD      0x7fffcb9b
                          DCD      0x00000001
                          DCD      0x7fa77b42
                          DCD      0x7fffcb9b
                          DCD      0x00000001
                          DCD      0x7f22d4eb
                          DCD      0x7fffc7a7
                          DCD      0x00000001
                          DCD      0x7fa43527
                          DCD      0x7fffc7a7
                          DCD      0x00000001
                          DCD      0x7f1af5e2
                          DCD      0x7fffc38f
                          DCD      0x00000001
                          DCD      0x7fa0ef21
                          DCD      0x7fffc38f
                          DCD      0x00000001
                          DCD      0x7f131756
                          DCD      0x7fffbf51
                          DCD      0x00000001
                          DCD      0x7f9da931
                          DCD      0x7fffbf51
                          DCD      0x00000001
                          DCD      0x7f0b3947
                          DCD      0x7fffbaef
                          DCD      0x00000001
                          DCD      0x7f9a6356
                          DCD      0x7fffbaef
                          DCD      0x00000001
                          DCD      0x7f035bb4
                          DCD      0x7fffb668
                          DCD      0x00000001
                          DCD      0x7f971d91
                          DCD      0x7fffb668
                          DCD      0x00000001
                          DCD      0x7efb7e9d
                          DCD      0x7fffb1bc
                          DCD      0x00000001
                          DCD      0x7f93d7e1
                          DCD      0x7fffb1bc
                          DCD      0x00000001
                          DCD      0x7ef3a203
                          DCD      0x7fffaceb
                          DCD      0x00000001
                          DCD      0x7f909247
                          DCD      0x7fffaceb
                          DCD      0x00000001
                          DCD      0x7eebc5e6
                          DCD      0x7fffa7f6
                          DCD      0x00000001
                          DCD      0x7f8d4cc2
                          DCD      0x7fffa7f6
                          DCD      0x00000001
                          DCD      0x7ee3ea44
                          DCD      0x7fffa2db
                          DCD      0x00000001
                          DCD      0x7f8a0754
                          DCD      0x7fffa2db
                          DCD      0x00000001
                          DCD      0x7edc0f1f
                          DCD      0x7fff9d9c
                          DCD      0x00000001
                          DCD      0x7f86c1fa
                          DCD      0x7fff9d9c
                          DCD      0x00000001
                          DCD      0x7ed43477
                          DCD      0x7fff9838
                          DCD      0x00000001
                          DCD      0x7f837cb6
                          DCD      0x7fff9838
                          DCD      0x00000001
                          DCD      0x7ecc5a4a
                          DCD      0x7fff92b0
                          DCD      0x00000001
                          DCD      0x7f803788
                          DCD      0x7fff92b0
                          DCD      0x00000001
                          DCD      0x7ec4809a
                          DCD      0x7fff8d02
                          DCD      0x00000001
                          DCD      0x7f7cf26f
                          DCD      0x7fff8d02
                          DCD      0x00000001
                          DCD      0x7ebca766
                          DCD      0x7fff8730
                          DCD      0x00000001
                          DCD      0x7f79ad6c
                          DCD      0x7fff8730
                          DCD      0x00000001
                          DCD      0x7eb4ceae
                          DCD      0x7fff8139
                          DCD      0x00000001
                          DCD      0x7f76687f
                          DCD      0x7fff8139
                          DCD      0x00000001
                          DCD      0x7eacf672
                          DCD      0x7fff7b1d
                          DCD      0x00000001
                          DCD      0x7f7323a7
                          DCD      0x7fff7b1d
                          DCD      0x00000001
                          DCD      0x7ea51eb2
                          DCD      0x7fff74dd
                          DCD      0x00000001
                          DCD      0x7f6fdee5
                          DCD      0x7fff74dd
                          DCD      0x00000001
                          DCD      0x7e9d476e
                          DCD      0x7fff6e77
                          DCD      0x00000001
                          DCD      0x7f6c9a38
                          DCD      0x7fff6e77
                          DCD      0x00000001
                          DCD      0x7e9570a7
                          DCD      0x7fff67ed
                          DCD      0x00000001
                          DCD      0x7f6955a1
                          DCD      0x7fff67ed
                          DCD      0x00000001
                          DCD      0x7e8d9a5b
                          DCD      0x7fff613e
                          DCD      0x00000001
                          DCD      0x7f66111f
                          DCD      0x7fff613e
                          DCD      0x00000001
                          DCD      0x7e85c48b
                          DCD      0x7fff5a6a
                          DCD      0x00000001
                          DCD      0x7f62ccb3
                          DCD      0x7fff5a6a
                          DCD      0x00000001
                          DCD      0x7e7def37
                          DCD      0x7fff5371
                          DCD      0x00000001
                          DCD      0x7f5f885c
                          DCD      0x7fff5371
                          DCD      0x00000001
                          DCD      0x7e761a5f
                          DCD      0x7fff4c54
                          DCD      0x00000001
                          DCD      0x7f5c441b
                          DCD      0x7fff4c54
                          DCD      0x00000001
                          DCD      0x7e6e4602
                          DCD      0x7fff4512
                          DCD      0x00000001
                          DCD      0x7f58fff0
                          DCD      0x7fff4512
                          DCD      0x00000001
                          DCD      0x7e667222
                          DCD      0x7fff3dab
                          DCD      0x00000001
                          DCD      0x7f55bbda
                          DCD      0x7fff3dab
                          DCD      0x00000001
                          DCD      0x7e5e9ebd
                          DCD      0x7fff361f
                          DCD      0x00000001
                          DCD      0x7f5277da
                          DCD      0x7fff361f
                          DCD      0x00000001
                          DCD      0x7e56cbd4
                          DCD      0x7fff2e6e
                          DCD      0x00000001
                          DCD      0x7f4f33f0
                          DCD      0x7fff2e6e
                          DCD      0x00000001
                          DCD      0x7e4ef967
                          DCD      0x7fff2699
                          DCD      0x00000001
                          DCD      0x7f4bf01b
                          DCD      0x7fff2699
                          DCD      0x00000001
                          DCD      0x7e472775
                          DCD      0x7fff1e9f
                          DCD      0x00000001
                          DCD      0x7f48ac5b
                          DCD      0x7fff1e9f
                          DCD      0x00000001
                          DCD      0x7e3f55ff
                          DCD      0x7fff1680
                          DCD      0x00000001
                          DCD      0x7f4568b1
                          DCD      0x7fff1680
                          DCD      0x00000001
                          DCD      0x7e378504
                          DCD      0x7fff0e3c
                          DCD      0x00000001
                          DCD      0x7f42251d
                          DCD      0x7fff0e3c
                          DCD      0x00000001
                          DCD      0x7e2fb485
                          DCD      0x7fff05d3
                          DCD      0x00000001
                          DCD      0x7f3ee19e
                          DCD      0x7fff05d3
                          DCD      0x00000001
                          DCD      0x7e27e481
                          DCD      0x7ffefd46
                          DCD      0x00000001
                          DCD      0x7f3b9e35
                          DCD      0x7ffefd46
                          DCD      0x00000001
                          DCD      0x7e00dbaa
                          DCD      0x7ffed05b
                          DCD      0x00000001
                          DCD      0x7f2b4e6b
                          DCD      0x7ffed05b
                          DCD      0x00000001
                          DCD      0x7dd9dedd
                          DCD      0x7ffe9fd9
                          DCD      0x00000001
                          DCD      0x7f1b00bd
                          DCD      0x7ffe9fd9
                          DCD      0x00000001
                          DCD      0x7db2ee15
                          DCD      0x7ffe6bbe
                          DCD      0x00000001
                          DCD      0x7f0ab52a
                          DCD      0x7ffe6bbe
                          DCD      0x00000001
                          DCD      0x7d8c094e
                          DCD      0x7ffe340c
                          DCD      0x00000001
                          DCD      0x7efa6bb3
                          DCD      0x7ffe340c
                          DCD      0x00000001
                          DCD      0x7d653084
                          DCD      0x7ffdf8c1
                          DCD      0x00000001
                          DCD      0x7eea2457
                          DCD      0x7ffdf8c1
                          DCD      0x00000001
                          DCD      0x7d3e63b2
                          DCD      0x7ffdb9df
                          DCD      0x00000001
                          DCD      0x7ed9df18
                          DCD      0x7ffdb9df
                          DCD      0x00000001
                          DCD      0x7d17a2d3
                          DCD      0x7ffd7765
                          DCD      0x00000001
                          DCD      0x7ec99bf4
                          DCD      0x7ffd7765
                          DCD      0x00000001
                          DCD      0x7cf0ede4
                          DCD      0x7ffd3153
                          DCD      0x00000001
                          DCD      0x7eb95aec
                          DCD      0x7ffd3153
                          DCD      0x00000001
                          DCD      0x7cca44df
                          DCD      0x7ffce7aa
                          DCD      0x00000001
                          DCD      0x7ea91bff
                          DCD      0x7ffce7aa
                          DCD      0x00000001
                          DCD      0x7ca3a7c1
                          DCD      0x7ffc9a68
                          DCD      0x00000001
                          DCD      0x7e98df2f
                          DCD      0x7ffc9a68
                          DCD      0x00000001
                          DCD      0x7c7d1684
                          DCD      0x7ffc498f
                          DCD      0x00000001
                          DCD      0x7e88a47b
                          DCD      0x7ffc498f
                          DCD      0x00000001
                          DCD      0x7c569125
                          DCD      0x7ffbf51e
                          DCD      0x00000001
                          DCD      0x7e786be3
                          DCD      0x7ffbf51e
                          DCD      0x00000001
                          DCD      0x7c09a9ee
                          DCD      0x7ffb4174
                          DCD      0x00000001
                          DCD      0x7e580107
                          DCD      0x7ffb4174
                          DCD      0x00000001
                          DCD      0x7bbcf1f8
                          DCD      0x7ffa7f6b
                          DCD      0x00000001
                          DCD      0x7e379e9b
                          DCD      0x7ffa7f6b
                          DCD      0x00000001
                          DCD      0x7b706921
                          DCD      0x7ff9af04
                          DCD      0x00000001
                          DCD      0x7e1744a0
                          DCD      0x7ff9af04
                          DCD      0x00000001
                          DCD      0x7b240f46
                          DCD      0x7ff8d03d
                          DCD      0x00000001
                          DCD      0x7df6f317
                          DCD      0x7ff8d03d
                          DCD      0x00000001
                          DCD      0x7ad7e444
                          DCD      0x7ff7e317
                          DCD      0x00000001
                          DCD      0x7dd6a9ff
                          DCD      0x7ff7e317
                          DCD      0x00000001
                          DCD      0x7a8be7f8
                          DCD      0x7ff6e793
                          DCD      0x00000001
                          DCD      0x7db66959
                          DCD      0x7ff6e793
                          DCD      0x00000001
                          DCD      0x7a401a41
                          DCD      0x7ff5ddb0
                          DCD      0x00000001
                          DCD      0x7d963126
                          DCD      0x7ff5ddb0
                          DCD      0x00000001
                          DCD      0x79f47afb
                          DCD      0x7ff4c56e
                          DCD      0x00000001
                          DCD      0x7d760165
                          DCD      0x7ff4c56e
                          DCD      0x00000001
                          DCD      0x79a90a05
                          DCD      0x7ff39ecf
                          DCD      0x00000001
                          DCD      0x7d55da16
                          DCD      0x7ff39ecf
                          DCD      0x00000001
                          DCD      0x795dc73d
                          DCD      0x7ff269d0
                          DCD      0x00000001
                          DCD      0x7d35bb3b
                          DCD      0x7ff269d0
                          DCD      0x00000001
                          DCD      0x7912b280
                          DCD      0x7ff12674
                          DCD      0x00000001
                          DCD      0x7d15a4d4
                          DCD      0x7ff12674
                          DCD      0x00000001
                          DCD      0x78c7cbad
                          DCD      0x7fefd4ba
                          DCD      0x00000001
                          DCD      0x7cf596e0
                          DCD      0x7fefd4ba
                          DCD      0x00000001
                          DCD      0x787d12a3
                          DCD      0x7fee74a2
                          DCD      0x00000001
                          DCD      0x7cd5915f
                          DCD      0x7fee74a2
                          DCD      0x00000001
                          DCD      0x7832873f
                          DCD      0x7fed062c
                          DCD      0x00000001
                          DCD      0x7cb59453
                          DCD      0x7fed062c
                          DCD      0x00000001
                          DCD      0x77e82961
                          DCD      0x7feb8959
                          DCD      0x00000001
                          DCD      0x7c959fbc
                          DCD      0x7feb8959
                          DCD      0x00000001
                          DCD      0x779df8e6
                          DCD      0x7fe9fe28
                          DCD      0x00000001
                          DCD      0x7c75b399
                          DCD      0x7fe9fe28
                          DCD      0x00000001
                          DCD      0x7753f5ae
                          DCD      0x7fe8649a
                          DCD      0x00000001
                          DCD      0x7c55cfeb
                          DCD      0x7fe8649a
                          DCD      0x00000001
                          DCD      0x770a1f98
                          DCD      0x7fe6bcaf
                          DCD      0x00000001
                          DCD      0x7c35f4b2
                          DCD      0x7fe6bcaf
                          DCD      0x00000001
                  filter_48db
                          DCD      0x7f5827b0
                          DCD      0x7fffe340
                          DCD      0x00000001
                          DCD      0x7f71a704
                          DCD      0x7fffe340
                          DCD      0x00000001
                          DCD      0x7fa0d15a
                          DCD      0x7fffe340
                          DCD      0x00000001
                          DCD      0x7fde8b80
                          DCD      0x7fffe340
                          DCD      0x00000001
                          DCD      0x7f4fc90e
                          DCD      0x7fffe04e
                          DCD      0x00000001
                          DCD      0x7f6a8d20
                          DCD      0x7fffe04e
                          DCD      0x00000001
                          DCD      0x7f9c10e1
                          DCD      0x7fffe04e
                          DCD      0x00000001
                          DCD      0x7fdcdf81
                          DCD      0x7fffe04e
                          DCD      0x00000001
                          DCD      0x7f476af9
                          DCD      0x7fffdd37
                          DCD      0x00000001
                          DCD      0x7f6373a2
                          DCD      0x7fffdd37
                          DCD      0x00000001
                          DCD      0x7f975096
                          DCD      0x7fffdd37
                          DCD      0x00000001
                          DCD      0x7fdb3388
                          DCD      0x7fffdd37
                          DCD      0x00000001
                          DCD      0x7f3f0d70
                          DCD      0x7fffd9fb
                          DCD      0x00000001
                          DCD      0x7f5c5a89
                          DCD      0x7fffd9fb
                          DCD      0x00000001
                          DCD      0x7f929078
                          DCD      0x7fffd9fb
                          DCD      0x00000001
                          DCD      0x7fd98795
                          DCD      0x7fffd9fb
                          DCD      0x00000001
                          DCD      0x7f36b073
                          DCD      0x7fffd69a
                          DCD      0x00000001
                          DCD      0x7f5541d4
                          DCD      0x7fffd69a
                          DCD      0x00000001
                          DCD      0x7f8dd087
                          DCD      0x7fffd69a
                          DCD      0x00000001
                          DCD      0x7fd7dba7
                          DCD      0x7fffd69a
                          DCD      0x00000001
                          DCD      0x7f2e5404
                          DCD      0x7fffd315
                          DCD      0x00000001
                          DCD      0x7f4e2985
                          DCD      0x7fffd315
                          DCD      0x00000001
                          DCD      0x7f8910c3
                          DCD      0x7fffd315
                          DCD      0x00000001
                          DCD      0x7fd62fbf
                          DCD      0x7fffd315
                          DCD      0x00000001
                          DCD      0x7f25f820
                          DCD      0x7fffcf6a
                          DCD      0x00000001
                          DCD      0x7f47119c
                          DCD      0x7fffcf6a
                          DCD      0x00000001
                          DCD      0x7f84512d
                          DCD      0x7fffcf6a
                          DCD      0x00000001
                          DCD      0x7fd483dd
                          DCD      0x7fffcf6a
                          DCD      0x00000001
                          DCD      0x7f1d9cc9
                          DCD      0x7fffcb9b
                          DCD      0x00000001
                          DCD      0x7f3ffa17
                          DCD      0x7fffcb9b
                          DCD      0x00000001
                          DCD      0x7f7f91c4
                          DCD      0x7fffcb9b
                          DCD      0x00000001
                          DCD      0x7fd2d800
                          DCD      0x7fffcb9b
                          DCD      0x00000001
                          DCD      0x7f1541fe
                          DCD      0x7fffc7a7
                          DCD      0x00000001
                          DCD      0x7f38e2f7
                          DCD      0x7fffc7a7
                          DCD      0x00000001
                          DCD      0x7f7ad289
                          DCD      0x7fffc7a7
                          DCD      0x00000001
                          DCD      0x7fd12c29
                          DCD      0x7fffc7a7
                          DCD      0x00000001
                          DCD      0x7f0ce7c0
                          DCD      0x7fffc38f
                          DCD      0x00000001
                          DCD      0x7f31cc3d
                          DCD      0x7fffc38f
                          DCD      0x00000001
                          DCD      0x7f76137b
                          DCD      0x7fffc38f
                          DCD      0x00000001
                          DCD      0x7fcf8057
                          DCD      0x7fffc38f
                          DCD      0x00000001
                          DCD      0x7f048e0e
                          DCD      0x7fffbf51
                          DCD      0x00000001
                          DCD      0x7f2ab5e7
                          DCD      0x7fffbf51
                          DCD      0x00000001
                          DCD      0x7f71549a
                          DCD      0x7fffbf51
                          DCD      0x00000001
                          DCD      0x7fcdd48c
                          DCD      0x7fffbf51
                          DCD      0x00000001
                          DCD      0x7efc34e8
                          DCD      0x7fffbaef
                          DCD      0x00000001
                          DCD      0x7f239ff6
                          DCD      0x7fffbaef
                          DCD      0x00000001
                          DCD      0x7f6c95e6
                          DCD      0x7fffbaef
                          DCD      0x00000001
                          DCD      0x7fcc28c5
                          DCD      0x7fffbaef
                          DCD      0x00000001
                          DCD      0x7ef3dc4f
                          DCD      0x7fffb668
                          DCD      0x00000001
                          DCD      0x7f1c8a6b
                          DCD      0x7fffb668
                          DCD      0x00000001
                          DCD      0x7f67d760
                          DCD      0x7fffb668
                          DCD      0x00000001
                          DCD      0x7fca7d05
                          DCD      0x7fffb668
                          DCD      0x00000001
                          DCD      0x7eeb8441
                          DCD      0x7fffb1bc
                          DCD      0x00000001
                          DCD      0x7f157544
                          DCD      0x7fffb1bc
                          DCD      0x00000001
                          DCD      0x7f631907
                          DCD      0x7fffb1bc
                          DCD      0x00000001
                          DCD      0x7fc8d14a
                          DCD      0x7fffb1bc
                          DCD      0x00000001
                          DCD      0x7ee32cc0
                          DCD      0x7fffaceb
                          DCD      0x00000001
                          DCD      0x7f0e6082
                          DCD      0x7fffaceb
                          DCD      0x00000001
                          DCD      0x7f5e5adb
                          DCD      0x7fffaceb
                          DCD      0x00000001
                          DCD      0x7fc72595
                          DCD      0x7fffaceb
                          DCD      0x00000001
                          DCD      0x7edad5cb
                          DCD      0x7fffa7f6
                          DCD      0x00000001
                          DCD      0x7f074c26
                          DCD      0x7fffa7f6
                          DCD      0x00000001
                          DCD      0x7f599cdd
                          DCD      0x7fffa7f6
                          DCD      0x00000001
                          DCD      0x7fc579e5
                          DCD      0x7fffa7f6
                          DCD      0x00000001
                          DCD      0x7ed27f62
                          DCD      0x7fffa2db
                          DCD      0x00000001
                          DCD      0x7f00382e
                          DCD      0x7fffa2db
                          DCD      0x00000001
                          DCD      0x7f54df0c
                          DCD      0x7fffa2db
                          DCD      0x00000001
                          DCD      0x7fc3ce3b
                          DCD      0x7fffa2db
                          DCD      0x00000001
                          DCD      0x7eca2984
                          DCD      0x7fff9d9c
                          DCD      0x00000001
                          DCD      0x7ef9249a
                          DCD      0x7fff9d9c
                          DCD      0x00000001
                          DCD      0x7f502168
                          DCD      0x7fff9d9c
                          DCD      0x00000001
                          DCD      0x7fc22297
                          DCD      0x7fff9d9c
                          DCD      0x00000001
                          DCD      0x7ec1d433
                          DCD      0x7fff9838
                          DCD      0x00000001
                          DCD      0x7ef2116c
                          DCD      0x7fff9838
                          DCD      0x00000001
                          DCD      0x7f4b63f1
                          DCD      0x7fff9838
                          DCD      0x00000001
                          DCD      0x7fc076f8
                          DCD      0x7fff9838
                          DCD      0x00000001
                          DCD      0x7eb97f6e
                          DCD      0x7fff92b0
                          DCD      0x00000001
                          DCD      0x7eeafea3
                          DCD      0x7fff92b0
                          DCD      0x00000001
                          DCD      0x7f46a6a8
                          DCD      0x7fff92b0
                          DCD      0x00000001
                          DCD      0x7fbecb5f
                          DCD      0x7fff92b0
                          DCD      0x00000001
                          DCD      0x7eb12b34
                          DCD      0x7fff8d02
                          DCD      0x00000001
                          DCD      0x7ee3ec3e
                          DCD      0x7fff8d02
                          DCD      0x00000001
                          DCD      0x7f41e98c
                          DCD      0x7fff8d02
                          DCD      0x00000001
                          DCD      0x7fbd1fcc
                          DCD      0x7fff8d02
                          DCD      0x00000001
                          DCD      0x7ea8d786
                          DCD      0x7fff8730
                          DCD      0x00000001
                          DCD      0x7edcda3e
                          DCD      0x7fff8730
                          DCD      0x00000001
                          DCD      0x7f3d2c9d
                          DCD      0x7fff8730
                          DCD      0x00000001
                          DCD      0x7fbb743e
                          DCD      0x7fff8730
                          DCD      0x00000001
                          DCD      0x7ea08464
                          DCD      0x7fff8139
                          DCD      0x00000001
                          DCD      0x7ed5c8a3
                          DCD      0x7fff8139
                          DCD      0x00000001
                          DCD      0x7f386fdb
                          DCD      0x7fff8139
                          DCD      0x00000001
                          DCD      0x7fb9c8b6
                          DCD      0x7fff8139
                          DCD      0x00000001
                          DCD      0x7e9831ce
                          DCD      0x7fff7b1d
                          DCD      0x00000001
                          DCD      0x7eceb76c
                          DCD      0x7fff7b1d
                          DCD      0x00000001
                          DCD      0x7f33b347
                          DCD      0x7fff7b1d
                          DCD      0x00000001
                          DCD      0x7fb81d34
                          DCD      0x7fff7b1d
                          DCD      0x00000001
                          DCD      0x7e8fdfc3
                          DCD      0x7fff74dd
                          DCD      0x00000001
                          DCD      0x7ec7a69b
                          DCD      0x7fff74dd
                          DCD      0x00000001
                          DCD      0x7f2ef6df
                          DCD      0x7fff74dd
                          DCD      0x00000001
                          DCD      0x7fb671b7
                          DCD      0x7fff74dd
                          DCD      0x00000001
                          DCD      0x7e878e44
                          DCD      0x7fff6e77
                          DCD      0x00000001
                          DCD      0x7ec0962d
                          DCD      0x7fff6e77
                          DCD      0x00000001
                          DCD      0x7f2a3aa5
                          DCD      0x7fff6e77
                          DCD      0x00000001
                          DCD      0x7fb4c640
                          DCD      0x7fff6e77
                          DCD      0x00000001
                          DCD      0x7e7f3d51
                          DCD      0x7fff67ed
                          DCD      0x00000001
                          DCD      0x7eb98625
                          DCD      0x7fff67ed
                          DCD      0x00000001
                          DCD      0x7f257e99
                          DCD      0x7fff67ed
                          DCD      0x00000001
                          DCD      0x7fb31acf
                          DCD      0x7fff67ed
                          DCD      0x00000001
                          DCD      0x7e76ece9
                          DCD      0x7fff613e
                          DCD      0x00000001
                          DCD      0x7eb27681
                          DCD      0x7fff613e
                          DCD      0x00000001
                          DCD      0x7f20c2b9
                          DCD      0x7fff613e
                          DCD      0x00000001
                          DCD      0x7fb16f63
                          DCD      0x7fff613e
                          DCD      0x00000001
                          DCD      0x7e6e9d0c
                          DCD      0x7fff5a6a
                          DCD      0x00000001
                          DCD      0x7eab6742
                          DCD      0x7fff5a6a
                          DCD      0x00000001
                          DCD      0x7f1c0707
                          DCD      0x7fff5a6a
                          DCD      0x00000001
                          DCD      0x7fafc3fd
                          DCD      0x7fff5a6a
                          DCD      0x00000001
                          DCD      0x7e664dbb
                          DCD      0x7fff5371
                          DCD      0x00000001
                          DCD      0x7ea45867
                          DCD      0x7fff5371
                          DCD      0x00000001
                          DCD      0x7f174b82
                          DCD      0x7fff5371
                          DCD      0x00000001
                          DCD      0x7fae189d
                          DCD      0x7fff5371
                          DCD      0x00000001
                          DCD      0x7e5dfef5
                          DCD      0x7fff4c54
                          DCD      0x00000001
                          DCD      0x7e9d49f1
                          DCD      0x7fff4c54
                          DCD      0x00000001
                          DCD      0x7f12902a
                          DCD      0x7fff4c54
                          DCD      0x00000001
                          DCD      0x7fac6d42
                          DCD      0x7fff4c54
                          DCD      0x00000001
                          DCD      0x7e55b0bb
                          DCD      0x7fff4512
                          DCD      0x00000001
                          DCD      0x7e963bdf
                          DCD      0x7fff4512
                          DCD      0x00000001
                          DCD      0x7f0dd4ff
                          DCD      0x7fff4512
                          DCD      0x00000001
                          DCD      0x7faac1ee
                          DCD      0x7fff4512
                          DCD      0x00000001
                          DCD      0x7e4d630c
                          DCD      0x7fff3dab
                          DCD      0x00000001
                          DCD      0x7e8f2e31
                          DCD      0x7fff3dab
                          DCD      0x00000001
                          DCD      0x7f091a02
                          DCD      0x7fff3dab
                          DCD      0x00000001
                          DCD      0x7fa9169e
                          DCD      0x7fff3dab
                          DCD      0x00000001
                          DCD      0x7e4515e8
                          DCD      0x7fff361f
                          DCD      0x00000001
                          DCD      0x7e8820e9
                          DCD      0x7fff361f
                          DCD      0x00000001
                          DCD      0x7f045f31
                          DCD      0x7fff361f
                          DCD      0x00000001
                          DCD      0x7fa76b55
                          DCD      0x7fff361f
                          DCD      0x00000001
                          DCD      0x7e3cc950
                          DCD      0x7fff2e6e
                          DCD      0x00000001
                          DCD      0x7e811404
                          DCD      0x7fff2e6e
                          DCD      0x00000001
                          DCD      0x7effa48e
                          DCD      0x7fff2e6e
                          DCD      0x00000001
                          DCD      0x7fa5c011
                          DCD      0x7fff2e6e
                          DCD      0x00000001
                          DCD      0x7e347d43
                          DCD      0x7fff2699
                          DCD      0x00000001
                          DCD      0x7e7a0784
                          DCD      0x7fff2699
                          DCD      0x00000001
                          DCD      0x7efaea18
                          DCD      0x7fff2699
                          DCD      0x00000001
                          DCD      0x7fa414d2
                          DCD      0x7fff2699
                          DCD      0x00000001
                          DCD      0x7e2c31c0
                          DCD      0x7fff1e9f
                          DCD      0x00000001
                          DCD      0x7e72fb69
                          DCD      0x7fff1e9f
                          DCD      0x00000001
                          DCD      0x7ef62fd0
                          DCD      0x7fff1e9f
                          DCD      0x00000001
                          DCD      0x7fa2699a
                          DCD      0x7fff1e9f
                          DCD      0x00000001
                          DCD      0x7e23e6c9
                          DCD      0x7fff1680
                          DCD      0x00000001
                          DCD      0x7e6befb1
                          DCD      0x7fff1680
                          DCD      0x00000001
                          DCD      0x7ef175b4
                          DCD      0x7fff1680
                          DCD      0x00000001
                          DCD      0x7fa0be67
                          DCD      0x7fff1680
                          DCD      0x00000001
                          DCD      0x7e1b9c5d
                          DCD      0x7fff0e3c
                          DCD      0x00000001
                          DCD      0x7e64e45e
                          DCD      0x7fff0e3c
                          DCD      0x00000001
                          DCD      0x7eecbbc6
                          DCD      0x7fff0e3c
                          DCD      0x00000001
                          DCD      0x7f9f133a
                          DCD      0x7fff0e3c
                          DCD      0x00000001
                          DCD      0x7e13527c
                          DCD      0x7fff05d3
                          DCD      0x00000001
                          DCD      0x7e5dd970
                          DCD      0x7fff05d3
                          DCD      0x00000001
                          DCD      0x7ee80204
                          DCD      0x7fff05d3
                          DCD      0x00000001
                          DCD      0x7f9d6812
                          DCD      0x7fff05d3
                          DCD      0x00000001
                          DCD      0x7e0b0926
                          DCD      0x7ffefd46
                          DCD      0x00000001
                          DCD      0x7e56cee5
                          DCD      0x7ffefd46
                          DCD      0x00000001
                          DCD      0x7ee34870
                          DCD      0x7ffefd46
                          DCD      0x00000001
                          DCD      0x7f9bbcf0
                          DCD      0x7ffefd46
                          DCD      0x00000001
                          DCD      0x7de1a29a
                          DCD      0x7ffed05b
                          DCD      0x00000001
                          DCD      0x7e33a011
                          DCD      0x7ffed05b
                          DCD      0x00000001
                          DCD      0x7ecbab31
                          DCD      0x7ffed05b
                          DCD      0x00000001
                          DCD      0x7f93659c
                          DCD      0x7ffed05b
                          DCD      0x00000001
                          DCD      0x7db8499a
                          DCD      0x7ffe9fd9
                          DCD      0x00000001
                          DCD      0x7e107b04
                          DCD      0x7ffe9fd9
                          DCD      0x00000001
                          DCD      0x7eb4125b
                          DCD      0x7ffe9fd9
                          DCD      0x00000001
                          DCD      0x7f8b0ed7
                          DCD      0x7ffe9fd9
                          DCD      0x00000001
                          DCD      0x7d8efe1f
                          DCD      0x7ffe6bbe
                          DCD      0x00000001
                          DCD      0x7ded5fbb
                          DCD      0x7ffe6bbe
                          DCD      0x00000001
                          DCD      0x7e9c7dec
                          DCD      0x7ffe6bbe
                          DCD      0x00000001
                          DCD      0x7f82b8a0
                          DCD      0x7ffe6bbe
                          DCD      0x00000001
                          DCD      0x7d65c025
                          DCD      0x7ffe340c
                          DCD      0x00000001
                          DCD      0x7dca4e34
                          DCD      0x7ffe340c
                          DCD      0x00000001
                          DCD      0x7e84ede4
                          DCD      0x7ffe340c
                          DCD      0x00000001
                          DCD      0x7f7a62f8
                          DCD      0x7ffe340c
                          DCD      0x00000001
                          DCD      0x7d3c8fa6
                          DCD      0x7ffdf8c1
                          DCD      0x00000001
                          DCD      0x7da7466a
                          DCD      0x7ffdf8c1
                          DCD      0x00000001
                          DCD      0x7e6d6243
                          DCD      0x7ffdf8c1
                          DCD      0x00000001
                          DCD      0x7f720ddf
                          DCD      0x7ffdf8c1
                          DCD      0x00000001
                          DCD      0x7d136c9c
                          DCD      0x7ffdb9df
                          DCD      0x00000001
                          DCD      0x7d84485b
                          DCD      0x7ffdb9df
                          DCD      0x00000001
                          DCD      0x7e55db08
                          DCD      0x7ffdb9df
                          DCD      0x00000001
                          DCD      0x7f69b955
                          DCD      0x7ffdb9df
                          DCD      0x00000001
                          DCD      0x7cea5702
                          DCD      0x7ffd7765
                          DCD      0x00000001
                          DCD      0x7d615405
                          DCD      0x7ffd7765
                          DCD      0x00000001
                          DCD      0x7e3e5832
                          DCD      0x7ffd7765
                          DCD      0x00000001
                          DCD      0x7f61655a
                          DCD      0x7ffd7765
                          DCD      0x00000001
                          DCD      0x7cc14ed3
                          DCD      0x7ffd3153
                          DCD      0x00000001
                          DCD      0x7d3e6963
                          DCD      0x7ffd3153
                          DCD      0x00000001
                          DCD      0x7e26d9c1
                          DCD      0x7ffd3153
                          DCD      0x00000001
                          DCD      0x7f5911ee
                          DCD      0x7ffd3153
                          DCD      0x00000001
                          DCD      0x7c985408
                          DCD      0x7ffce7aa
                          DCD      0x00000001
                          DCD      0x7d1b8873
                          DCD      0x7ffce7aa
                          DCD      0x00000001
                          DCD      0x7e0f5fb5
                          DCD      0x7ffce7aa
                          DCD      0x00000001
                          DCD      0x7f50bf13
                          DCD      0x7ffce7aa
                          DCD      0x00000001
                          DCD      0x7c6f669e
                          DCD      0x7ffc9a68
                          DCD      0x00000001
                          DCD      0x7cf8b131
                          DCD      0x7ffc9a68
                          DCD      0x00000001
                          DCD      0x7df7ea0c
                          DCD      0x7ffc9a68
                          DCD      0x00000001
                          DCD      0x7f486cc7
                          DCD      0x7ffc9a68
                          DCD      0x00000001
                          DCD      0x7c46868e
                          DCD      0x7ffc498f
                          DCD      0x00000001
                          DCD      0x7cd5e39c
                          DCD      0x7ffc498f
                          DCD      0x00000001
                          DCD      0x7de078c7
                          DCD      0x7ffc498f
                          DCD      0x00000001
                          DCD      0x7f401b0b
                          DCD      0x7ffc498f
                          DCD      0x00000001
                          DCD      0x7c1db3d3
                          DCD      0x7ffbf51e
                          DCD      0x00000001
                          DCD      0x7cb31faf
                          DCD      0x7ffbf51e
                          DCD      0x00000001
                          DCD      0x7dc90be4
                          DCD      0x7ffbf51e
                          DCD      0x00000001
                          DCD      0x7f37c9df
                          DCD      0x7ffbf51e
                          DCD      0x00000001
                          DCD      0x7bcc3646
                          DCD      0x7ffb4174
                          DCD      0x00000001
                          DCD      0x7c6db4c2
                          DCD      0x7ffb4174
                          DCD      0x00000001
                          DCD      0x7d9a3f44
                          DCD      0x7ffb4174
                          DCD      0x00000001
                          DCD      0x7f272938
                          DCD      0x7ffb4174
                          DCD      0x00000001
                          DCD      0x7b7aedcc
                          DCD      0x7ffa7f6b
                          DCD      0x00000001
                          DCD      0x7c287054
                          DCD      0x7ffa7f6b
                          DCD      0x00000001
                          DCD      0x7d6b8427
                          DCD      0x7ffa7f6b
                          DCD      0x00000001
                          DCD      0x7f168ad5
                          DCD      0x7ffa7f6b
                          DCD      0x00000001
                          DCD      0x7b29da3c
                          DCD      0x7ff9af04
                          DCD      0x00000001
                          DCD      0x7be3524b
                          DCD      0x7ff9af04
                          DCD      0x00000001
                          DCD      0x7d3cda89
                          DCD      0x7ff9af04
                          DCD      0x00000001
                          DCD      0x7f05eeb5
                          DCD      0x7ff9af04
                          DCD      0x00000001
                          DCD      0x7ad8fb69
                          DCD      0x7ff8d03d
                          DCD      0x00000001
                          DCD      0x7b9e5a91
                          DCD      0x7ff8d03d
                          DCD      0x00000001
                          DCD      0x7d0e4266
                          DCD      0x7ff8d03d
                          DCD      0x00000001
                          DCD      0x7ef554db
                          DCD      0x7ff8d03d
                          DCD      0x00000001
                          DCD      0x7a88512b
                          DCD      0x7ff7e317
                          DCD      0x00000001
                          DCD      0x7b59890b
                          DCD      0x7ff7e317
                          DCD      0x00000001
                          DCD      0x7cdfbbb9
                          DCD      0x7ff7e317
                          DCD      0x00000001
                          DCD      0x7ee4bd48
                          DCD      0x7ff7e317
                          DCD      0x00000001
                          DCD      0x7a37db57
                          DCD      0x7ff6e793
                          DCD      0x00000001
                          DCD      0x7b14dda4
                          DCD      0x7ff6e793
                          DCD      0x00000001
                          DCD      0x7cb1467c
                          DCD      0x7ff6e793
                          DCD      0x00000001
                          DCD      0x7ed427fe
                          DCD      0x7ff6e793
                          DCD      0x00000001
                          DCD      0x79e799c2
                          DCD      0x7ff5ddb0
                          DCD      0x00000001
                          DCD      0x7ad05842
                          DCD      0x7ff5ddb0
                          DCD      0x00000001
                          DCD      0x7c82e2ad
                          DCD      0x7ff5ddb0
                          DCD      0x00000001
                          DCD      0x7ec394fd
                          DCD      0x7ff5ddb0
                          DCD      0x00000001
                          DCD      0x79978c43
                          DCD      0x7ff4c56e
                          DCD      0x00000001
                          DCD      0x7a8bf8cd
                          DCD      0x7ff4c56e
                          DCD      0x00000001
                          DCD      0x7c549045
                          DCD      0x7ff4c56e
                          DCD      0x00000001
                          DCD      0x7eb30447
                          DCD      0x7ff4c56e
                          DCD      0x00000001
                          DCD      0x7947b2b0
                          DCD      0x7ff39ecf
                          DCD      0x00000001
                          DCD      0x7a47bf2f
                          DCD      0x7ff39ecf
                          DCD      0x00000001
                          DCD      0x7c264f41
                          DCD      0x7ff39ecf
                          DCD      0x00000001
                          DCD      0x7ea275de
                          DCD      0x7ff39ecf
                          DCD      0x00000001
                          DCD      0x78f80ce0
                          DCD      0x7ff269d0
                          DCD      0x00000001
                          DCD      0x7a03ab4f
                          DCD      0x7ff269d0
                          DCD      0x00000001
                          DCD      0x7bf81f9c
                          DCD      0x7ff269d0
                          DCD      0x00000001
                          DCD      0x7e91e9c3
                          DCD      0x7ff269d0
                          DCD      0x00000001
                          DCD      0x78a89aaa
                          DCD      0x7ff12674
                          DCD      0x00000001
                          DCD      0x79bfbd16
                          DCD      0x7ff12674
                          DCD      0x00000001
                          DCD      0x7bca0151
                          DCD      0x7ff12674
                          DCD      0x00000001
                          DCD      0x7e815ff7
                          DCD      0x7ff12674
                          DCD      0x00000001
                          DCD      0x78595be3
                          DCD      0x7fefd4ba
                          DCD      0x00000001
                          DCD      0x797bf46b
                          DCD      0x7fefd4ba
                          DCD      0x00000001
                          DCD      0x7b9bf45c
                          DCD      0x7fefd4ba
                          DCD      0x00000001
                          DCD      0x7e70d87b
                          DCD      0x7fefd4ba
                          DCD      0x00000001
                          DCD      0x780a5064
                          DCD      0x7fee74a2
                          DCD      0x00000001
                          DCD      0x79385138
                          DCD      0x7fee74a2
                          DCD      0x00000001
                          DCD      0x7b6df8b8
                          DCD      0x7fee74a2
                          DCD      0x00000001
                          DCD      0x7e605352
                          DCD      0x7fee74a2
                          DCD      0x00000001
                          DCD      0x77bb7803
                          DCD      0x7fed062c
                          DCD      0x00000001
                          DCD      0x78f4d365
                          DCD      0x7fed062c
                          DCD      0x00000001
                          DCD      0x7b400e60
                          DCD      0x7fed062c
                          DCD      0x00000001
                          DCD      0x7e4fd07c
                          DCD      0x7fed062c
                          DCD      0x00000001
                          DCD      0x776cd298
                          DCD      0x7feb8959
                          DCD      0x00000001
                          DCD      0x78b17adb
                          DCD      0x7feb8959
                          DCD      0x00000001
                          DCD      0x7b123550
                          DCD      0x7feb8959
                          DCD      0x00000001
                          DCD      0x7e3f4ffb
                          DCD      0x7feb8959
                          DCD      0x00000001
                          DCD      0x771e5ffa
                          DCD      0x7fe9fe28
                          DCD      0x00000001
                          DCD      0x786e4782
                          DCD      0x7fe9fe28
                          DCD      0x00000001
                          DCD      0x7ae46d83
                          DCD      0x7fe9fe28
                          DCD      0x00000001
                          DCD      0x7e2ed1d0
                          DCD      0x7fe9fe28
                          DCD      0x00000001
                          DCD      0x76d02000
                          DCD      0x7fe8649a
                          DCD      0x00000001
                          DCD      0x782b3944
                          DCD      0x7fe8649a
                          DCD      0x00000001
                          DCD      0x7ab6b6f5
                          DCD      0x7fe8649a
                          DCD      0x00000001
                          DCD      0x7e1e55fc
                          DCD      0x7fe8649a
                          DCD      0x00000001
                          DCD      0x76821283
                          DCD      0x7fe6bcaf
                          DCD      0x00000001
                          DCD      0x77e85008
                          DCD      0x7fe6bcaf
                          DCD      0x00000001
                          DCD      0x7a8911a1
                          DCD      0x7fe6bcaf
                          DCD      0x00000001
                          DCD      0x7e0ddc81
                          DCD      0x7fe6bcaf
                          DCD      0x00000001
                  c_eq_gain
001824  f0000070          DCB      0xf0,0x00,0x00,0x70
001828  a0000000          DCB      0xa0,0x00,0x00,0x00
00182c  f0000070          DCB      0xf0,0x00,0x00,0x70
001830  ac000000          DCB      0xac,0x00,0x00,0x00
001834  f0000070          DCB      0xf0,0x00,0x00,0x70
001838  b8000000          DCB      0xb8,0x00,0x00,0x00
00183c  f0000070          DCB      0xf0,0x00,0x00,0x70
001840  c4000000          DCB      0xc4,0x00,0x00,0x00
001844  f0000070          DCB      0xf0,0x00,0x00,0x70
001848  d0000000          DCB      0xd0,0x00,0x00,0x00
00184c  f0000070          DCB      0xf0,0x00,0x00,0x70
001850  d8000000          DCB      0xd8,0x00,0x00,0x00
001854  f0000070          DCB      0xf0,0x00,0x00,0x70
001858  e0000000          DCB      0xe0,0x00,0x00,0x00
00185c  f0000070          DCB      0xf0,0x00,0x00,0x70
001860  e8000000          DCB      0xe8,0x00,0x00,0x00
001864  f0000070          DCB      0xf0,0x00,0x00,0x70
001868  ec000000          DCB      0xec,0x00,0x00,0x00
00186c  f0000070          DCB      0xf0,0x00,0x00,0x70
001870  f0000000          DCB      0xf0,0x00,0x00,0x00
001874  f0000070          DCB      0xf0,0x00,0x00,0x70
001878  f4000000          DCB      0xf4,0x00,0x00,0x00
00187c  f0000070          DCB      0xf0,0x00,0x00,0x70
001880  f8000000          DCB      0xf8,0x00,0x00,0x00
001884  f0000070          DCB      0xf0,0x00,0x00,0x70
001888  fc000000          DCB      0xfc,0x00,0x00,0x00
00188c  f0000070          DCB      0xf0,0x00,0x00,0x70
001890  00000000          DCB      0x00,0x00,0x00,0x00
001894  f0000070          DCB      0xf0,0x00,0x00,0x70
001898  04000000          DCB      0x04,0x00,0x00,0x00
00189c  f0000070          DCB      0xf0,0x00,0x00,0x70
0018a0  08000000          DCB      0x08,0x00,0x00,0x00
0018a4  f0000070          DCB      0xf0,0x00,0x00,0x70
0018a8  0c000000          DCB      0x0c,0x00,0x00,0x00
                  c_ulEqQFractionTbl
                          DCD      0x00000000
                          DCD      0x00666666
                          DCD      0x00cccccc
                          DCD      0x01333332
                          DCD      0x01999999
                          DCD      0x01ffffff
                          DCD      0x02666665
                          DCD      0x02cccccc
                          DCD      0x03333332
                          DCD      0x03999998
                  __FUNCTION__
0018d4  6473705f          DCB      0x64,0x73,0x70,0x5f
0018d8  6d617374          DCB      0x6d,0x61,0x73,0x74
0018dc  65725f76          DCB      0x65,0x72,0x5f,0x76
0018e0  6f6c5f73          DCB      0x6f,0x6c,0x5f,0x73
0018e4  657400            DCB      0x65,0x74,0x00
