ARM Linker, 5.03 [Build 76] [MDK-ARM Standard]

==============================================================================

Section Cross References

    startup_rvmdk.o(STACK) refers (Special) to heapauxi.o(.text) for __use_two_region_memory
    startup_rvmdk.o(HEAP) refers (Special) to heapauxi.o(.text) for __use_two_region_memory
    startup_rvmdk.o(RESET) refers (Special) to heapauxi.o(.text) for __use_two_region_memory
    startup_rvmdk.o(RESET) refers to startup_rvmdk.o(STACK) for StackMem
    startup_rvmdk.o(RESET) refers to main.o(.text) for vApplicationMallocFailedHook
    startup_rvmdk.o(RESET) refers to port.o(.emb_text) for vPortSVCHandler
    startup_rvmdk.o(RESET) refers to port.o(.text) for xPortSysTickHandler
    startup_rvmdk.o(RESET) refers to system_task.o(.text) for sys_wake_up_handler
    startup_rvmdk.o(RESET) refers to serial.o(.text) for uart0_interrupt_handler
    startup_rvmdk.o(RESET) refers to bsp.o(.text) for Timer1IntHandler
    startup_rvmdk.o(RESET) refers to ir_driver.o(.text) for ir_in_recive_handler
    startup_rvmdk.o(RESET) refers to lwiplib.o(.text) for lwIPEthernetIntHandler
    startup_rvmdk.o(RESET) refers to __main.o(!!!main) for __main
    startup_rvmdk.o(.text) refers (Special) to heapauxi.o(.text) for __use_two_region_memory
    startup_rvmdk.o(.text) refers to startup_rvmdk.o(HEAP) for HeapMem
    startup_rvmdk.o(.text) refers to startup_rvmdk.o(STACK) for StackMem
    bsp.o(.text) refers to gpio.o(i.GPIOPinTypeGPIOInput) for GPIOPinTypeGPIOInput
    bsp.o(.text) refers to sysctl.o(i.SysCtlPeripheralEnable) for SysCtlPeripheralEnable
    bsp.o(.text) refers to gpio.o(i.GPIOIntTypeSet) for GPIOIntTypeSet
    bsp.o(.text) refers to gpio.o(i.GPIOPinTypeGPIOOutput) for GPIOPinTypeGPIOOutput
    bsp.o(.text) refers to gpio.o(i.GPIOPinWrite) for GPIOPinWrite
    bsp.o(.text) refers to interrupt.o(i.IntEnable) for IntEnable
    bsp.o(.text) refers to gpio.o(i.GPIOIntEnable) for GPIOIntEnable
    bsp.o(.text) refers to timer.o(i.TimerConfigure) for TimerConfigure
    bsp.o(.text) refers to timer.o(i.TimerLoadSet) for TimerLoadSet
    bsp.o(.text) refers to timer.o(i.TimerIntEnable) for TimerIntEnable
    bsp.o(.text) refers to timer.o(i.TimerEnable) for TimerEnable
    bsp.o(.text) refers to timer.o(i.TimerValueGet) for TimerValueGet
    bsp.o(.text) refers to pwm.o(i.PWMClockSet) for PWMClockSet
    bsp.o(.text) refers to gpio.o(i.GPIOPinConfigure) for GPIOPinConfigure
    bsp.o(.text) refers to gpio.o(i.GPIOPinTypePWM) for GPIOPinTypePWM
    bsp.o(.text) refers to pwm.o(i.PWMGenConfigure) for PWMGenConfigure
    bsp.o(.text) refers to pwm.o(i.PWMGenPeriodSet) for PWMGenPeriodSet
    bsp.o(.text) refers to main.o(.data) for gSysClock
    bsp.o(.text) refers to pwm.o(i.PWMGenPeriodGet) for PWMGenPeriodGet
    bsp.o(.text) refers to pwm.o(i.PWMPulseWidthSet) for PWMPulseWidthSet
    bsp.o(.text) refers to pwm.o(i.PWMOutputState) for PWMOutputState
    bsp.o(.text) refers to pwm.o(i.PWMGenEnable) for PWMGenEnable
    bsp.o(.text) refers to timer.o(i.TimerIntClear) for TimerIntClear
    bsp.o(.text) refers to keyboard.o(.text) for KeyScanLoop
    bsp.o(.text) refers to ir_driver.o(.text) for ir_timeout_check
    bsp.o(.text) refers to rt_memclr_w.o(.text) for __aeabi_memclr4
    bsp.o(.text) refers to vsprintf.o(.text) for vsprintf
    bsp.o(.text) refers to strlen.o(.text) for strlen
    bsp.o(.text) refers to uart.o(i.UARTCharPutNonBlocking) for UARTCharPutNonBlocking
    bsp.o(.text) refers to sysctl.o(.emb_text) for SysCtlDelay
    bsp.o(.text) refers to bsp.o(.data) for cnt
    croutine.o(.text) refers to list.o(.text) for vListInitialise
    croutine.o(.text) refers to heap_4.o(.text) for pvPortMalloc
    croutine.o(.text) refers to port.o(.emb_text) for ulPortSetInterruptMask
    croutine.o(.text) refers to tasks.o(.text) for xTaskGetTickCount
    croutine.o(.text) refers to croutine.o(.bss) for pxReadyCoRoutineLists
    croutine.o(.text) refers to croutine.o(.data) for pxDelayedCoRoutineList
    queue.o(.text) refers to port.o(.text) for vPortEnterCritical
    queue.o(.text) refers to tasks.o(.text) for xTaskRemoveFromEventList
    queue.o(.text) refers to list.o(.text) for vListInitialise
    queue.o(.text) refers to heap_4.o(.text) for pvPortMalloc
    queue.o(.text) refers to rt_memcpy_v6.o(.text) for __aeabi_memcpy
    queue.o(.text) refers to port.o(.emb_text) for ulPortSetInterruptMask
    queue.o(.text) refers to queue.o(.bss) for xQueueRegistry
    tasks.o(.text) refers to list.o(.text) for vListInitialise
    tasks.o(.text) refers to heap_4.o(.text) for pvPortMalloc
    tasks.o(.text) refers to aeabi_memset.o(.text) for __aeabi_memset
    tasks.o(.text) refers to port.o(.text) for pxPortInitialiseStack
    tasks.o(.text) refers to tasks.o(.bss) for pxReadyTasksLists
    tasks.o(.text) refers to tasks.o(.data) for pxDelayedTaskList
    tasks.o(.text) refers to main.o(.text) for vApplicationStackOverflowHook
    tasks.o(.text) refers to memcmp.o(.text) for memcmp
    tasks.o(.text) refers to tasks.o(.constdata) for ucExpectedStackBytes
    tasks.o(.text) refers to port.o(.emb_text) for ulPortSetInterruptMask
    port.o(.emb_text) refers to tasks.o(.text) for vTaskSwitchContext
    port.o(.emb_text) refers to tasks.o(.data) for pxCurrentTCB
    port.o(.text) refers to port.o(.emb_text) for ulPortSetInterruptMask
    port.o(.text) refers to tasks.o(.text) for xTaskIncrementTick
    port.o(.text) refers to port.o(.data) for uxCriticalNesting
    heap_4.o(.text) refers to tasks.o(.text) for vTaskSuspendAll
    heap_4.o(.text) refers to heap_4.o(.data) for xStart
    heap_4.o(.text) refers to heap_4.o(.bss) for ucHeap
    main.o(.text) refers to bsp.o(.text) for s_printf
    main.o(.text) refers to sysctl.o(i.SysCtlClockFreqSet) for SysCtlClockFreqSet
    main.o(.text) refers to system_task.o(.text) for sys_low_power_handler
    main.o(.text) refers to serial.o(.text) for bsp_uart_init
    main.o(.text) refers to tasks.o(.text) for xTaskGenericCreate
    main.o(.text) refers to main.o(.data) for gSysClock
    main.o(.text) refers to display_task.o(.text) for display_task
    main.o(.text) refers to web.o(.text) for web_task
    main.o(.text) refers to console_task.o(.text) for console_task
    main.o(.data) refers to main.o(.conststring) for .conststring
    serial.o(.text) refers to sysctl.o(i.SysCtlPeripheralEnable) for SysCtlPeripheralEnable
    serial.o(.text) refers to gpio.o(i.GPIOPinConfigure) for GPIOPinConfigure
    serial.o(.text) refers to gpio.o(i.GPIOPinTypeUART) for GPIOPinTypeUART
    serial.o(.text) refers to uart.o(i.UARTConfigSetExpClk) for UARTConfigSetExpClk
    serial.o(.text) refers to uart.o(i.UARTIntEnable) for UARTIntEnable
    serial.o(.text) refers to uart.o(i.UARTEnable) for UARTEnable
    serial.o(.text) refers to uart.o(i.UARTIntStatus) for UARTIntStatus
    serial.o(.text) refers to uart.o(i.UARTIntClear) for UARTIntClear
    serial.o(.text) refers to uart.o(i.UARTCharGetNonBlocking) for UARTCharGetNonBlocking
    serial.o(.text) refers to osal_ringbuf.o(.text) for ring_buffer_write
    serial.o(.text) refers to uart.o(i.UARTCharsAvail) for UARTCharsAvail
    serial.o(.text) refers to uart.o(i.UARTCharPutNonBlocking) for UARTCharPutNonBlocking
    serial.o(.text) refers to bsp.o(.text) for s_printf
    serial.o(.text) refers to osal_console.o(.text) for osal_run_command
    serial.o(.text) refers to rt_memclr_w.o(.text) for __aeabi_memclr4
    serial.o(.text) refers to main.o(.data) for gSysClock
    serial.o(.text) refers to serial.o(.data) for index
    serial.o(.text) refers to serial.o(.bss) for buf
    osal_console.o(.text) refers to bsp.o(.text) for s_printf
    osal_console.o(.text) refers to strcmpv7m.o(.text) for strcmp
    osal_console.o(INIT_CMD) refers to osal_console.o(.conststrlit) for .conststrlit
    osal_console.o(INIT_CMD) refers to osal_console.o(.text) for fn1
    keyboard.o(.text) refers to display_task.o(.text) for dis_send_msg
    keyboard.o(.text) refers to system_task.o(.text) for sys_factory_reset
    keyboard.o(.text) refers to lwiplib.o(.text) for sys_untimeout
    keyboard.o(.text) refers to bsp.o(.text) for s_printf
    keyboard.o(.text) refers to display_task.o(.data) for cur_menu
    keyboard.o(.text) refers to keyboard.o(.constdata) for __FUNCTION__
    keyboard.o(.text) refers to keyboard.o(.data) for gCode
    keyboard.o(.text) refers to osal_detect.o(.text) for update_detect_state
    keyboard.o(.text) refers to tasks.o(.text) for vTaskDelay
    keyboard.o(.text) refers to system_task.o(.data) for gSystem_t
    keyboard.o(.data) refers to bsp.o(.text) for GPIO_ReadSinglePin
    osal_soft_iic.o(.text) refers to bsp.o(.text) for s_printf
    osal_soft_iic.o(.text) refers to osal_soft_iic.o(.data) for iic
    osal_soft_iic.o(.text) refers to osal_soft_iic.o(.constdata) for __FUNCTION__
    osal_soft_iic.o(.data) refers to eprom_driver.o(.text) for epprom_sda
    osal_utility.o(.text) refers to bsp.o(.text) for s_printf
    osal_utility.o(.text) refers to osal_utility.o(.constdata) for crc32_table
    osal_ringbuf.o(.text) refers to rt_memclr_w.o(.text) for __aeabi_memclr4
    osal_ringbuf.o(.text) refers to bsp.o(.text) for s_printf
    osal_ringbuf.o(.text) refers to osal_ringbuf.o(.data) for ring_list
    osal_ringbuf.o(.text) refers to osal_ringbuf.o(.constdata) for __FUNCTION__
    osal_ringbuf.o(.data) refers to serial.o(.bss) for console
    osal_ringbuf.o(.data) refers to ir_driver.o(.bss) for ir_front
    osal_detect.o(.text) refers to bsp.o(.text) for s_printf
    osal_detect.o(.text) refers to tasks.o(.text) for vTaskDelay
    osal_detect.o(.text) refers to osal_detect.o(.constdata) for __FUNCTION__
    osal_detect.o(.text) refers to osal_detect.o(.data) for detectlist
    osal_detect.o(.text) refers to system_task.o(.data) for gSystem_t
    osal_detect.o(.data) refers to bsp.o(.text) for GPIO_ReadSinglePin
    osal_detect.o(.data) refers to system_task.o(.text) for sys_audio_valid_handler
    dsp_app.o(.text) refers to bsp.o(.text) for s_printf
    dsp_app.o(.text) refers to cs485xx.o(.text) for Dsp0_WriteRegister
    dsp_app.o(.text) refers to dsp_app.o(.constdata) for __FUNCTION__
    console_task.o(.text) refers to bsp.o(.text) for s_printf
    console_task.o(.text) refers to osal_ringbuf.o(.text) for ring_buffer_init
    console_task.o(.text) refers to interrupt.o(i.IntEnable) for IntEnable
    console_task.o(.text) refers to serial.o(.text) for serial_poll_handler
    console_task.o(.text) refers to tasks.o(.text) for vTaskDelay
    system_task.o(.text) refers to bsp.o(.text) for bsp_delay_ms
    system_task.o(.text) refers to osal_detect.o(.text) for update_detect_state
    system_task.o(.text) refers to display_task.o(.text) for dis_send_msg
    system_task.o(.text) refers to lwiplib.o(.text) for sys_timeout
    system_task.o(.text) refers to gpio.o(i.GPIOPinWrite) for GPIOPinWrite
    system_task.o(.text) refers to dsp_app.o(.text) for dsp_master_vol_set
    system_task.o(.text) refers to njw1195_driver.o(.text) for njw1195_volume_set
    system_task.o(.text) refers to cs4251x.o(.text) for CS4251X_Init
    system_task.o(.text) refers to system_task.o(.data) for sys_init_array
    system_task.o(.text) refers to lcd_driver.o(.text) for lcd_init
    system_task.o(.text) refers to eprom_driver.o(.text) for eeprom_write
    system_task.o(.text) refers to sysctl.o(i.SysCtlPeripheralEnable) for SysCtlPeripheralEnable
    system_task.o(.text) refers to watchdog.o(i.WatchdogReloadSet) for WatchdogReloadSet
    system_task.o(.text) refers to watchdog.o(i.WatchdogResetEnable) for WatchdogResetEnable
    system_task.o(.text) refers to watchdog.o(i.WatchdogEnable) for WatchdogEnable
    system_task.o(.text) refers to interrupt.o(i.IntDisable) for IntDisable
    system_task.o(.text) refers to gpio.o(i.GPIOIntStatus) for GPIOIntStatus
    system_task.o(.text) refers to gpio.o(i.GPIOIntClear) for GPIOIntClear
    system_task.o(.text) refers to keyboard.o(.text) for dis_timeout_handler
    system_task.o(.text) refers to osal_utility.o(.text) for calc_crc32
    system_task.o(.text) refers to port.o(.text) for vPortEnterCritical
    system_task.o(.text) refers to display_task.o(.data) for cur_menu
    system_task.o(.text) refers to system_task.o(.constdata) for __FUNCTION__
    system_task.o(.text) refers to queue.o(.text) for xQueueGenericSend
    system_task.o(.text) refers to heap_4.o(.text) for pvPortMalloc
    system_task.o(.text) refers to rt_memclr.o(.text) for __aeabi_memclr
    system_task.o(.text) refers to rt_memcpy_w.o(.text) for __aeabi_memcpy4
    system_task.o(.text) refers to ir_driver.o(.text) for ir_get_commond
    system_task.o(.text) refers to tasks.o(.text) for vTaskDelay
    system_task.o(.text) refers to system_task.o(.bss) for gSystem_last
    system_task.o(.text) refers to gpio.o(i.GPIOPinTypeGPIOOutput) for GPIOPinTypeGPIOOutput
    system_task.o(.text) refers to strcmpv7m.o(.text) for strcmp
    system_task.o(.text) refers to gpio.o(i.GPIOPinTypeGPIOInput) for GPIOPinTypeGPIOInput
    system_task.o(.text) refers to gpio.o(i.GPIOIntTypeSet) for GPIOIntTypeSet
    system_task.o(.text) refers to interrupt.o(i.IntEnable) for IntEnable
    system_task.o(.text) refers to gpio.o(i.GPIOIntEnable) for GPIOIntEnable
    system_task.o(.text) refers to sysctl.o(i.SysCtlDeepSleep) for SysCtlDeepSleep
    system_task.o(.constdata) refers to system_task.o(.conststring) for .conststring
    system_task.o(.data) refers to cs485xx.o(.text) for dsp_boot_init
    system_task.o(.data) refers to system_task.o(.text) for sys_audio_config_load
    system_task.o(INIT_CMD) refers to system_task.o(.conststrlit) for .conststrlit
    system_task.o(INIT_CMD) refers to system_task.o(.text) for lcd_test
    display_task.o(.text) refers to heap_4.o(.text) for pvPortMalloc
    display_task.o(.text) refers to bsp.o(.text) for s_printf
    display_task.o(.text) refers to rt_memclr_w.o(.text) for __aeabi_memclr4
    display_task.o(.text) refers to vsprintf.o(.text) for vsprintf
    display_task.o(.text) refers to lcd_driver.o(.text) for lcd_write_cmd
    display_task.o(.text) refers to display_task.o(.constdata) for __FUNCTION__
    display_task.o(.text) refers to display_task.o(.bss) for menu_context
    display_task.o(.text) refers to display_task.o(.data) for gMenuHead
    display_task.o(.text) refers to lwiplib.o(.text) for sys_timeout
    display_task.o(.text) refers to system_task.o(.text) for sys_send_msg
    display_task.o(.text) refers to queue.o(.text) for xQueueGenericSend
    display_task.o(.text) refers to keyboard.o(.data) for gCode
    display_task.o(.text) refers to system_task.o(.data) for gSystem_t
    display_task.o(.text) refers to dflt_clz.o(x$fpl$dflt) for __aeabi_i2d
    display_task.o(.text) refers to ddiv.o(x$fpl$ddiv) for __aeabi_ddiv
    display_task.o(.text) refers to d2f.o(x$fpl$d2f) for __aeabi_d2f
    display_task.o(.text) refers to f2d.o(x$fpl$f2d) for __aeabi_f2d
    display_task.o(.text) refers to dflt_clz.o(x$fpl$dfltu) for __aeabi_ui2d
    display_task.o(.text) refers to main.o(.data) for version
    display_task.o(.text) refers to keyboard.o(.text) for dis_timeout_handler
    display_task.o(.constdata) refers to display_task.o(.conststring) for .conststring
    display_task.o(INIT_CMD) refers to display_task.o(.conststrlit) for .conststrlit
    display_task.o(INIT_CMD) refers to display_task.o(.text) for menu_list_create
    lcd_driver.o(.text) refers to gpio.o(i.GPIOPinTypeGPIOInput) for GPIOPinTypeGPIOInput
    lcd_driver.o(.text) refers to gpio.o(i.GPIOPinWrite) for GPIOPinWrite
    lcd_driver.o(.text) refers to gpio.o(i.GPIOPinRead) for GPIOPinRead
    lcd_driver.o(.text) refers to gpio.o(i.GPIOPinTypeGPIOOutput) for GPIOPinTypeGPIOOutput
    lcd_driver.o(.text) refers to bsp.o(.text) for s_printf
    lcd_driver.o(.text) refers to display_task.o(.text) for display_init_menu
    lcd_driver.o(.text) refers to lcd_driver.o(.data) for stmr
    eprom_driver.o(.text) refers to gpio.o(i.GPIOPinTypeGPIOInput) for GPIOPinTypeGPIOInput
    eprom_driver.o(.text) refers to gpio.o(i.GPIOPinWrite) for GPIOPinWrite
    eprom_driver.o(.text) refers to gpio.o(i.GPIOPinTypeGPIOOutput) for GPIOPinTypeGPIOOutput
    eprom_driver.o(.text) refers to bsp.o(.text) for GPIO_ReadSinglePin
    eprom_driver.o(.text) refers to osal_soft_iic.o(.text) for osal_iic_write_buf
    eprom_driver.o(.text) refers to strlen.o(.text) for strlen
    eprom_driver.o(.text) refers to atoi.o(.text) for atoi
    eprom_driver.o(.text) refers to rt_memclr_w.o(.text) for __aeabi_memclr4
    eprom_driver.o(.text) refers to eprom_driver.o(.constdata) for __FUNCTION__
    eprom_driver.o(INIT_CMD) refers to eprom_driver.o(.conststrlit) for .conststrlit
    eprom_driver.o(INIT_CMD) refers to eprom_driver.o(.text) for eep_write
    ir_driver.o(.text) refers to gpio.o(i.GPIOIntStatus) for GPIOIntStatus
    ir_driver.o(.text) refers to gpio.o(i.GPIOIntClear) for GPIOIntClear
    ir_driver.o(.text) refers to bsp.o(.text) for GPIO_ReadSinglePin
    ir_driver.o(.text) refers to gpio.o(i.GPIOPinWrite) for GPIOPinWrite
    ir_driver.o(.text) refers to osal_ringbuf.o(.text) for ring_buffer_write
    ir_driver.o(.text) refers to ir_driver.o(.bss) for ir_jack
    ir_driver.o(.text) refers to ir_driver.o(.data) for gIr_timeout
    ir_driver.o(.text) refers to ir_driver.o(.constdata) for __FUNCTION__
    njw1195_driver.o(.text) refers to port.o(.text) for vPortEnterCritical
    njw1195_driver.o(.text) refers to gpio.o(i.GPIOPinWrite) for GPIOPinWrite
    njw1195_driver.o(.text) refers to cs4251x.o(.text) for cs4251x_write
    njw1195_driver.o(.text) refers to bsp.o(.text) for s_printf
    njw1195_driver.o(.text) refers to strcmpv7m.o(.text) for strcmp
    njw1195_driver.o(INIT_CMD) refers to njw1195_driver.o(.conststrlit) for .conststrlit
    njw1195_driver.o(INIT_CMD) refers to njw1195_driver.o(.text) for clk_gpio_test
    cs4251x.o(.text) refers to port.o(.text) for vPortEnterCritical
    cs4251x.o(.text) refers to gpio.o(i.GPIOPinWrite) for GPIOPinWrite
    cs4251x.o(.text) refers to bsp.o(.text) for GPIO_ReadSinglePin
    cs485xx.o(.text) refers to sw_spi.o(.text) for SmartDelay_spi
    cs485xx.o(.text) refers to bsp.o(.text) for GPIO_ReadSinglePin
    cs485xx.o(.text) refers to port.o(.text) for vPortEnterCritical
    cs485xx.o(.text) refers to gpio.o(i.GPIOPinWrite) for GPIOPinWrite
    cs485xx.o(.text) refers to tasks.o(.text) for vTaskDelay
    cs485xx.o(.text) refers to cs485xx.o(.constdata) for OS_P4_48520_01_01_RC79_ULD
    sw_spi.o(.text) refers to gpio.o(i.GPIOPinWrite) for GPIOPinWrite
    sw_spi.o(.text) refers to bsp.o(.text) for GPIO_ReadSinglePin
    sw_spi.o(.text) refers to port.o(.text) for vPortEnterCritical
    enet_fs.o(.text) refers to ff.o(.text) for f_mount
    enet_fs.o(.text) refers to mmc-dk-tm4c129x.o(.text) for disk_timerproc
    enet_fs.o(.text) refers to lwiplib.o(.text) for mem_malloc
    enet_fs.o(.text) refers to strncmp.o(.text) for strncmp
    enet_fs.o(.text) refers to rt_memcpy_v6.o(.text) for __aeabi_memcpy
    enet_fs.o(.text) refers to enet_fs.o(.bss) for g_sFatFs
    enet_fs.o(.text) refers to enet_fs.o(.data) for ui32TickCounter
    enet_fs.o(.text) refers to enet_fs.o(.constdata) for file_about_htm
    lwiplib.o(.text) refers to port.o(.text) for vPortExitCritical
    lwiplib.o(.text) refers to queue.o(.text) for uxQueueMessagesWaiting
    lwiplib.o(.text) refers to tasks.o(.text) for xTaskGetTickCount
    lwiplib.o(.text) refers to lwiplib.o(.bss) for lwip_stats
    lwiplib.o(.text) refers to lwiplib.o(.data) for ram
    lwiplib.o(.text) refers to rt_memcpy_v6.o(.text) for __aeabi_memcpy
    lwiplib.o(.text) refers to rt_memclr.o(.text) for __aeabi_memclr
    lwiplib.o(.text) refers to lwiplib.o(.constdata) for tcp_persist_backoff
    lwiplib.o(.text) refers to rt_memclr_w.o(.text) for __aeabi_memclr4
    lwiplib.o(.text) refers to rand.o(.emb_text) for rand
    lwiplib.o(.text) refers to rt_memcpy_w.o(.text) for __aeabi_memcpy4
    lwiplib.o(.text) refers to memcmp.o(.text) for memcmp
    lwiplib.o(.text) refers to strlen.o(.text) for strlen
    lwiplib.o(.text) refers to emac.o(i.EMACRxDMADescriptorListSet) for EMACRxDMADescriptorListSet
    lwiplib.o(.text) refers to emac.o(i.EMACTxDMADescriptorListSet) for EMACTxDMADescriptorListSet
    lwiplib.o(.text) refers to emac.o(i.EMACAddrGet) for EMACAddrGet
    lwiplib.o(.text) refers to emac.o(i.EMACPHYRead) for EMACPHYRead
    lwiplib.o(.text) refers to emac.o(i.EMACPHYWrite) for EMACPHYWrite
    lwiplib.o(.text) refers to emac.o(i.EMACFrameFilterSet) for EMACFrameFilterSet
    lwiplib.o(.text) refers to emac.o(i.EMACIntStatus) for EMACIntStatus
    lwiplib.o(.text) refers to emac.o(i.EMACIntClear) for EMACIntClear
    lwiplib.o(.text) refers to emac.o(i.EMACTxEnable) for EMACTxEnable
    lwiplib.o(.text) refers to emac.o(i.EMACRxEnable) for EMACRxEnable
    lwiplib.o(.text) refers to emac.o(i.EMACIntEnable) for EMACIntEnable
    lwiplib.o(.text) refers to interrupt.o(i.IntEnable) for IntEnable
    lwiplib.o(.text) refers to interrupt.o(i.IntMasterEnable) for IntMasterEnable
    lwiplib.o(.text) refers to emac.o(i.EMACTxDMAPollDemand) for EMACTxDMAPollDemand
    lwiplib.o(.text) refers to emac.o(i.EMACConfigGet) for EMACConfigGet
    lwiplib.o(.text) refers to emac.o(i.EMACConfigSet) for EMACConfigSet
    lwiplib.o(.text) refers to main.o(.text) for lwIPHostTimerHandler
    lwiplib.o(.text) refers to netconf.o(.text) for SetLocalhost
    lwiplib.o(.text) refers to display_task.o(.text) for update_ip_menu
    lwiplib.o(.text) refers to bsp.o(.text) for s_printf
    lwiplib.o(.text) refers to sysctl.o(i.SysCtlPeripheralEnable) for SysCtlPeripheralEnable
    lwiplib.o(.text) refers to sysctl.o(i.SysCtlPeripheralReset) for SysCtlPeripheralReset
    lwiplib.o(.text) refers to sysctl.o(i.SysCtlPeripheralPresent) for SysCtlPeripheralPresent
    lwiplib.o(.text) refers to sysctl.o(i.SysCtlPeripheralReady) for SysCtlPeripheralReady
    lwiplib.o(.text) refers to emac.o(i.EMACPHYConfigSet) for EMACPHYConfigSet
    lwiplib.o(.text) refers to emac.o(i.EMACInit) for EMACInit
    lwiplib.o(.text) refers to emac.o(i.EMACAddrSet) for EMACAddrSet
    lwiplib.o(.text) refers to emac.o(i.EMACTimestampIntStatus) for EMACTimestampIntStatus
    lwiplib.o(.text) refers to emac.o(i.EMACIntDisable) for EMACIntDisable
    lwiplib.o(.constdata) refers to lwiplib.o(.conststring) for .conststring
    lwiplib.o(.constdata) refers to lwiplib.o(.data) for tcp_listen_pcbs
    lwiplib.o(.data) refers to lwiplib.o(.conststring) for .conststring
    lwiplib.o(.data) refers to lwiplib.o(.bss) for g_pTxDescriptors
    web.o(.text) refers to _scanf_int.o(.text) for _scanf_int
    web.o(.text) refers to rt_memclr.o(.text) for __aeabi_memclr
    web.o(.text) refers to vsprintf.o(.text) for vsprintf
    web.o(.text) refers to strlen.o(.text) for strlen
    web.o(.text) refers to bsp.o(.text) for s_printf
    web.o(.text) refers to strcat.o(.text) for strcat
    web.o(.text) refers to strtok.o(.text) for strtok
    web.o(.text) refers to rt_memclr_w.o(.text) for __aeabi_memclr4
    web.o(.text) refers to strcmpv7m.o(.text) for strcmp
    web.o(.text) refers to lwiplib.o(.text) for mem_malloc
    web.o(.text) refers to enet_fs.o(.text) for fs_close
    web.o(.text) refers to strstr.o(.text) for strstr
    web.o(.text) refers to strchr.o(.text) for strchr
    web.o(.text) refers to strncmp.o(.text) for strncmp
    web.o(.text) refers to web.o(.bss) for jsbuf
    web.o(.text) refers to web.o(.data) for pjson
    web.o(.text) refers to web.o(.constdata) for __FUNCTION__
    web.o(.text) refers to system_task.o(.text) for sys_ip_power_on_handler
    web.o(.text) refers to tasks.o(.text) for vTaskDelay
    web.o(.text) refers to interrupt.o(i.IntPrioritySet) for IntPrioritySet
    web.o(.text) refers to gpio.o(i.GPIOPinConfigure) for GPIOPinConfigure
    web.o(.text) refers to gpio.o(i.GPIOPinTypeEthernetLED) for GPIOPinTypeEthernetLED
    web.o(.text) refers to atoi.o(.text) for atoi
    web.o(.text) refers to display_task.o(.text) for dis_send_msg
    web.o(.text) refers to system_task.o(.data) for gSystem_t
    web.o(.text) refers to main.o(.data) for gSysClock
    web.o(.text) refers to osal_detect.o(.text) for update_detect_state
    web.o(.text) refers to display_task.o(.constdata) for sub_name
    web.o(.text) refers to netconf.o(.text) for SetHostName
    web.o(.text) refers to __0sscanf.o(.text) for __0sscanf
    web.o(.constdata) refers to web.o(.conststring) for .conststring
    web.o(.data) refers to web.o(.conststring) for .conststring
    web.o(.data) refers to web.o(.text) for Cgi_setup_page_handler
    web.o(.data) refers to web.o(.bss) for json_output_buf
    ff.o(.text) refers to mmc-dk-tm4c129x.o(.text) for disk_write
    ff.o(.text) refers to ff.o(.data) for FatFs
    mmc-dk-tm4c129x.o(.text) refers to mmc-dk-tm4c129x.o(.data) for Timer2
    mmc-dk-tm4c129x.o(.text) refers to main.o(.data) for gSysClock
    upnpweb.o(.text) refers to _printf_percent.o(.ARM.Collect$$_printf_percent$$00000000) for _printf_percent
    upnpweb.o(.text) refers to _printf_s.o(.ARM.Collect$$_printf_percent$$00000014) for _printf_s
    upnpweb.o(.text) refers to _printf_str.o(.text) for _printf_str
    upnpweb.o(.text) refers to _printf_pad.o(.text) for _printf_pre_padding
    upnpweb.o(.text) refers to _printf_truncate.o(.text) for _printf_truncate_unsigned
    upnpweb.o(.text) refers to _printf_d.o(.ARM.Collect$$_printf_percent$$00000009) for _printf_d
    upnpweb.o(.text) refers to _printf_i.o(.ARM.Collect$$_printf_percent$$00000008) for _printf_i
    upnpweb.o(.text) refers to _printf_u.o(.ARM.Collect$$_printf_percent$$0000000A) for _printf_u
    upnpweb.o(.text) refers to _printf_o.o(.ARM.Collect$$_printf_percent$$0000000B) for _printf_o
    upnpweb.o(.text) refers to _printf_x.o(.ARM.Collect$$_printf_percent$$0000000C) for _printf_x
    upnpweb.o(.text) refers to _printf_p.o(.ARM.Collect$$_printf_percent$$00000002) for _printf_p
    upnpweb.o(.text) refers to _printf_c.o(.ARM.Collect$$_printf_percent$$00000013) for _printf_c
    upnpweb.o(.text) refers to _printf_lc.o(.ARM.Collect$$_printf_percent$$00000015) for _printf_lc
    upnpweb.o(.text) refers to _printf_n.o(.ARM.Collect$$_printf_percent$$00000001) for _printf_n
    upnpweb.o(.text) refers to _printf_charcount.o(.text) for _printf_charcount
    upnpweb.o(.text) refers to _printf_dec.o(.text) for _printf_int_dec
    upnpweb.o(.text) refers to _printf_oct_int_ll.o(.text) for _printf_longlong_oct
    upnpweb.o(.text) refers to _printf_hex_int_ll_ptr.o(.text) for _printf_longlong_hex
    upnpweb.o(.text) refers to _printf_wctomb.o(.text) for _printf_wctomb
    upnpweb.o(.text) refers to strcat.o(.text) for strcat
    upnpweb.o(.text) refers to strlen.o(.text) for strlen
    upnpweb.o(.text) refers to __2sprintf.o(.text) for __2sprintf
    upnpweb.o(.text) refers to strcpy.o(.text) for strcpy
    upnpweb.o(.text) refers to lwiplib.o(.text) for mem_malloc
    upnpweb.o(.text) refers to rt_memclr.o(.text) for __aeabi_memclr
    upnpweb.o(.text) refers to netconf.o(.text) for Localhost
    upnpweb.o(.text) refers to upnpweb.o(.data) for device_xml_prefix
    upnpweb.o(.text) refers to httpd_upnp.o(.text) for HttpdReadHdrAnalyze
    upnpweb.o(.text) refers to strncmp.o(.text) for strncmp
    upnpweb.o(.text) refers to port.o(.text) for vPortEnterCritical
    upnpweb.o(.text) refers to upnpweb.o(.bss) for send_buf
    upnpweb.o(.data) refers to upnpweb.o(.conststring) for .conststring
    httpd_upnp.o(.text) refers to _scanf_int.o(.text) for _scanf_int
    httpd_upnp.o(.text) refers to _printf_percent.o(.ARM.Collect$$_printf_percent$$00000000) for _printf_percent
    httpd_upnp.o(.text) refers to _printf_s.o(.ARM.Collect$$_printf_percent$$00000014) for _printf_s
    httpd_upnp.o(.text) refers to _printf_str.o(.text) for _printf_str
    httpd_upnp.o(.text) refers to _printf_d.o(.ARM.Collect$$_printf_percent$$00000009) for _printf_d
    httpd_upnp.o(.text) refers to _printf_dec.o(.text) for _printf_int_dec
    httpd_upnp.o(.text) refers to _printf_pad.o(.text) for _printf_pre_padding
    httpd_upnp.o(.text) refers to _printf_x.o(.ARM.Collect$$_printf_percent$$0000000C) for _printf_x
    httpd_upnp.o(.text) refers to _printf_hex_int_ll_ptr.o(.text) for _printf_longlong_hex
    httpd_upnp.o(.text) refers to rt_ctype_table.o(.text) for __rt_ctype_table
    httpd_upnp.o(.text) refers to tolower.o(.text) for tolower
    httpd_upnp.o(.text) refers to strncmp.o(.text) for strncmp
    httpd_upnp.o(.text) refers to atol.o(.text) for atol
    httpd_upnp.o(.text) refers to strchr.o(.text) for strchr
    httpd_upnp.o(.text) refers to strlen.o(.text) for strlen
    httpd_upnp.o(.text) refers to lwiplib.o(.text) for mem_malloc
    httpd_upnp.o(.text) refers to rt_memclr.o(.text) for __aeabi_memclr
    httpd_upnp.o(.text) refers to strncpy.o(.text) for strncpy
    httpd_upnp.o(.text) refers to __0sscanf.o(.text) for __0sscanf
    httpd_upnp.o(.text) refers to httpd_upnp.o(.data) for http_response
    httpd_upnp.o(.text) refers to strcpy.o(.text) for strcpy
    httpd_upnp.o(.text) refers to __2sprintf.o(.text) for __2sprintf
    httpd_upnp.o(.text) refers to strcat.o(.text) for strcat
    httpd_upnp.o(.text) refers to netconf.o(.text) for htoa
    httpd_upnp.o(.text) refers to lwiplib.o(.constdata) for ip_addr_any
    httpd_upnp.o(.data) refers to httpd_upnp.o(.conststring) for .conststring
    netconf.o(.text) refers to lwiplib.o(.text) for lwip_htonl
    netconf.o(.text) refers to strlen.o(.text) for strlen
    netconf.o(.text) refers to rt_memclr_w.o(.text) for __aeabi_memclr4
    netconf.o(.text) refers to netconf.o(.bss) for net_context
    ssdp.o(.text) refers to _printf_pad.o(.text) for _printf_pre_padding
    ssdp.o(.text) refers to _printf_percent.o(.ARM.Collect$$_printf_percent$$00000000) for _printf_percent
    ssdp.o(.text) refers to _printf_x.o(.ARM.Collect$$_printf_percent$$0000000C) for _printf_x
    ssdp.o(.text) refers to _printf_hex_int_ll_ptr.o(.text) for _printf_longlong_hex
    ssdp.o(.text) refers to strlen.o(.text) for strlen
    ssdp.o(.text) refers to vsprintf.o(.text) for vsprintf
    ssdp.o(.text) refers to tasks.o(.text) for xTaskGetTickCount
    ssdp.o(.text) refers to rand.o(.emb_text) for rand
    ssdp.o(.text) refers to __2snprintf.o(.text) for __2snprintf
    ssdp.o(.text) refers to netconf.o(.text) for Localhost
    ssdp.o(.text) refers to lwiplib.o(.text) for igmp_joingroup
    ssdp.o(.text) refers to rt_memclr.o(.text) for __aeabi_memclr
    ssdp.o(.text) refers to strcpy.o(.text) for strcpy
    ssdp.o(.text) refers to strcat.o(.text) for strcat
    ssdp.o(.text) refers to rt_ctype_table.o(.text) for __rt_ctype_table
    ssdp.o(.text) refers to tolower.o(.text) for tolower
    ssdp.o(.text) refers to ssdp.o(.constdata) for .constdata
    ssdp.o(.text) refers to ssdp.o(.data) for ssdp_type
    ssdp.o(.text) refers to strncmp.o(.text) for strncmp
    ssdp.o(.text) refers to strstr.o(.text) for strstr
    ssdp.o(.text) refers to atol.o(.text) for atol
    ssdp.o(.text) refers to upnpweb.o(.text) for UpnpWebInit
    ssdp.o(.text) refers to lwiplib.o(.constdata) for ip_addr_any
    emac.o(i.EMACHashFilterBitCalculate) refers to sw_crc.o(i.Crc32) for Crc32
    emac.o(i.EMACInit) refers to emac.o(.constdata) for .constdata
    emac.o(i.EMACIntRegister) refers to interrupt.o(i.IntRegister) for IntRegister
    emac.o(i.EMACIntRegister) refers to interrupt.o(i.IntEnable) for IntEnable
    emac.o(i.EMACIntUnregister) refers to interrupt.o(i.IntDisable) for IntDisable
    emac.o(i.EMACIntUnregister) refers to interrupt.o(i.IntUnregister) for IntUnregister
    emac.o(i.EMACPHYConfigSet) refers to sysctl.o(i.SysCtlPeripheralReset) for SysCtlPeripheralReset
    emac.o(i.EMACPHYConfigSet) refers to sysctl.o(i.SysCtlPeripheralReady) for SysCtlPeripheralReady
    emac.o(i.EMACPHYConfigSet) refers to sysctl.o(.emb_text) for SysCtlDelay
    emac.o(i.EMACPHYExtendedRead) refers to emac.o(i.EMACPHYWrite) for EMACPHYWrite
    emac.o(i.EMACPHYExtendedWrite) refers to emac.o(i.EMACPHYWrite) for EMACPHYWrite
    emac.o(i.EMACPHYPowerOff) refers to emac.o(i.EMACPHYWrite) for EMACPHYWrite
    emac.o(i.EMACPHYPowerOn) refers to emac.o(i.EMACPHYWrite) for EMACPHYWrite
    emac.o(i.EMACVLANHashFilterBitCalculate) refers to sw_crc.o(i.Crc32) for Crc32
    gpio.o(i.GPIOIntRegister) refers to interrupt.o(i.IntRegister) for IntRegister
    gpio.o(i.GPIOIntRegister) refers to interrupt.o(i.IntEnable) for IntEnable
    gpio.o(i.GPIOIntRegister) refers to gpio.o(.constdata) for .constdata
    gpio.o(i.GPIOIntUnregister) refers to interrupt.o(i.IntDisable) for IntDisable
    gpio.o(i.GPIOIntUnregister) refers to interrupt.o(i.IntUnregister) for IntUnregister
    gpio.o(i.GPIOIntUnregister) refers to gpio.o(.constdata) for .constdata
    gpio.o(i.GPIOPinConfigure) refers to gpio.o(.constdata) for .constdata
    gpio.o(i.GPIOPinTypeADC) refers to gpio.o(i.GPIODirModeSet) for GPIODirModeSet
    gpio.o(i.GPIOPinTypeADC) refers to gpio.o(i.GPIOPadConfigSet) for GPIOPadConfigSet
    gpio.o(i.GPIOPinTypeCAN) refers to gpio.o(i.GPIODirModeSet) for GPIODirModeSet
    gpio.o(i.GPIOPinTypeCAN) refers to gpio.o(i.GPIOPadConfigSet) for GPIOPadConfigSet
    gpio.o(i.GPIOPinTypeCIR) refers to gpio.o(i.GPIODirModeSet) for GPIODirModeSet
    gpio.o(i.GPIOPinTypeCIR) refers to gpio.o(i.GPIOPadConfigSet) for GPIOPadConfigSet
    gpio.o(i.GPIOPinTypeComparator) refers to gpio.o(i.GPIODirModeSet) for GPIODirModeSet
    gpio.o(i.GPIOPinTypeComparator) refers to gpio.o(i.GPIOPadConfigSet) for GPIOPadConfigSet
    gpio.o(i.GPIOPinTypeEPI) refers to gpio.o(i.GPIODirModeSet) for GPIODirModeSet
    gpio.o(i.GPIOPinTypeEPI) refers to gpio.o(i.GPIOPadConfigSet) for GPIOPadConfigSet
    gpio.o(i.GPIOPinTypeEthernetLED) refers to gpio.o(i.GPIODirModeSet) for GPIODirModeSet
    gpio.o(i.GPIOPinTypeEthernetLED) refers to gpio.o(i.GPIOPadConfigSet) for GPIOPadConfigSet
    gpio.o(i.GPIOPinTypeEthernetMII) refers to gpio.o(i.GPIODirModeSet) for GPIODirModeSet
    gpio.o(i.GPIOPinTypeEthernetMII) refers to gpio.o(i.GPIOPadConfigSet) for GPIOPadConfigSet
    gpio.o(i.GPIOPinTypeFan) refers to gpio.o(i.GPIODirModeSet) for GPIODirModeSet
    gpio.o(i.GPIOPinTypeFan) refers to gpio.o(i.GPIOPadConfigSet) for GPIOPadConfigSet
    gpio.o(i.GPIOPinTypeGPIOInput) refers to gpio.o(i.GPIODirModeSet) for GPIODirModeSet
    gpio.o(i.GPIOPinTypeGPIOInput) refers to gpio.o(i.GPIOPadConfigSet) for GPIOPadConfigSet
    gpio.o(i.GPIOPinTypeGPIOOutput) refers to gpio.o(i.GPIOPadConfigSet) for GPIOPadConfigSet
    gpio.o(i.GPIOPinTypeGPIOOutput) refers to gpio.o(i.GPIODirModeSet) for GPIODirModeSet
    gpio.o(i.GPIOPinTypeGPIOOutputOD) refers to gpio.o(i.GPIOPadConfigSet) for GPIOPadConfigSet
    gpio.o(i.GPIOPinTypeGPIOOutputOD) refers to gpio.o(i.GPIODirModeSet) for GPIODirModeSet
    gpio.o(i.GPIOPinTypeI2C) refers to gpio.o(i.GPIODirModeSet) for GPIODirModeSet
    gpio.o(i.GPIOPinTypeI2C) refers to gpio.o(i.GPIOPadConfigSet) for GPIOPadConfigSet
    gpio.o(i.GPIOPinTypeI2CSCL) refers to gpio.o(i.GPIODirModeSet) for GPIODirModeSet
    gpio.o(i.GPIOPinTypeI2CSCL) refers to gpio.o(i.GPIOPadConfigSet) for GPIOPadConfigSet
    gpio.o(i.GPIOPinTypeKBColumn) refers to gpio.o(i.GPIODirModeSet) for GPIODirModeSet
    gpio.o(i.GPIOPinTypeKBColumn) refers to gpio.o(i.GPIOPadConfigSet) for GPIOPadConfigSet
    gpio.o(i.GPIOPinTypeKBRow) refers to gpio.o(i.GPIODirModeSet) for GPIODirModeSet
    gpio.o(i.GPIOPinTypeKBRow) refers to gpio.o(i.GPIOPadConfigSet) for GPIOPadConfigSet
    gpio.o(i.GPIOPinTypeLCD) refers to gpio.o(i.GPIODirModeSet) for GPIODirModeSet
    gpio.o(i.GPIOPinTypeLCD) refers to gpio.o(i.GPIOPadConfigSet) for GPIOPadConfigSet
    gpio.o(i.GPIOPinTypeLEDSeq) refers to gpio.o(i.GPIODirModeSet) for GPIODirModeSet
    gpio.o(i.GPIOPinTypeLEDSeq) refers to gpio.o(i.GPIOPadConfigSet) for GPIOPadConfigSet
    gpio.o(i.GPIOPinTypeLPC) refers to gpio.o(i.GPIODirModeSet) for GPIODirModeSet
    gpio.o(i.GPIOPinTypeLPC) refers to gpio.o(i.GPIOPadConfigSet) for GPIOPadConfigSet
    gpio.o(i.GPIOPinTypePECIRx) refers to gpio.o(i.GPIODirModeSet) for GPIODirModeSet
    gpio.o(i.GPIOPinTypePECIRx) refers to gpio.o(i.GPIOPadConfigSet) for GPIOPadConfigSet
    gpio.o(i.GPIOPinTypePECITx) refers to gpio.o(i.GPIODirModeSet) for GPIODirModeSet
    gpio.o(i.GPIOPinTypePECITx) refers to gpio.o(i.GPIOPadConfigSet) for GPIOPadConfigSet
    gpio.o(i.GPIOPinTypePWM) refers to gpio.o(i.GPIODirModeSet) for GPIODirModeSet
    gpio.o(i.GPIOPinTypePWM) refers to gpio.o(i.GPIOPadConfigSet) for GPIOPadConfigSet
    gpio.o(i.GPIOPinTypeQEI) refers to gpio.o(i.GPIODirModeSet) for GPIODirModeSet
    gpio.o(i.GPIOPinTypeQEI) refers to gpio.o(i.GPIOPadConfigSet) for GPIOPadConfigSet
    gpio.o(i.GPIOPinTypeSSI) refers to gpio.o(i.GPIODirModeSet) for GPIODirModeSet
    gpio.o(i.GPIOPinTypeSSI) refers to gpio.o(i.GPIOPadConfigSet) for GPIOPadConfigSet
    gpio.o(i.GPIOPinTypeTimer) refers to gpio.o(i.GPIODirModeSet) for GPIODirModeSet
    gpio.o(i.GPIOPinTypeTimer) refers to gpio.o(i.GPIOPadConfigSet) for GPIOPadConfigSet
    gpio.o(i.GPIOPinTypeUART) refers to gpio.o(i.GPIODirModeSet) for GPIODirModeSet
    gpio.o(i.GPIOPinTypeUART) refers to gpio.o(i.GPIOPadConfigSet) for GPIOPadConfigSet
    gpio.o(i.GPIOPinTypeUSBAnalog) refers to gpio.o(i.GPIODirModeSet) for GPIODirModeSet
    gpio.o(i.GPIOPinTypeUSBAnalog) refers to gpio.o(i.GPIOPadConfigSet) for GPIOPadConfigSet
    gpio.o(i.GPIOPinTypeUSBDigital) refers to gpio.o(i.GPIODirModeSet) for GPIODirModeSet
    gpio.o(i.GPIOPinTypeUSBDigital) refers to gpio.o(i.GPIOPadConfigSet) for GPIOPadConfigSet
    gpio.o(i.GPIOPinTypeWakeHigh) refers to gpio.o(i.GPIODirModeSet) for GPIODirModeSet
    gpio.o(i.GPIOPinTypeWakeHigh) refers to gpio.o(i.GPIOPadConfigSet) for GPIOPadConfigSet
    gpio.o(i.GPIOPinTypeWakeLow) refers to gpio.o(i.GPIODirModeSet) for GPIODirModeSet
    gpio.o(i.GPIOPinTypeWakeLow) refers to gpio.o(i.GPIOPadConfigSet) for GPIOPadConfigSet
    interrupt.o(i.IntDisable) refers to interrupt.o(.constdata) for .constdata
    interrupt.o(i.IntEnable) refers to interrupt.o(.constdata) for .constdata
    interrupt.o(i.IntIsEnabled) refers to interrupt.o(.constdata) for .constdata
    interrupt.o(i.IntMasterDisable) refers to cpu.o(.emb_text) for CPUcpsid
    interrupt.o(i.IntMasterEnable) refers to cpu.o(.emb_text) for CPUcpsie
    interrupt.o(i.IntPendClear) refers to interrupt.o(.constdata) for .constdata
    interrupt.o(i.IntPendSet) refers to interrupt.o(.constdata) for .constdata
    interrupt.o(i.IntPriorityGet) refers to interrupt.o(.constdata) for .constdata
    interrupt.o(i.IntPriorityGroupingGet) refers to interrupt.o(.constdata) for .constdata
    interrupt.o(i.IntPriorityGroupingSet) refers to interrupt.o(.constdata) for .constdata
    interrupt.o(i.IntPriorityMaskGet) refers to cpu.o(.emb_text) for CPUbasepriGet
    interrupt.o(i.IntPriorityMaskSet) refers to cpu.o(.emb_text) for CPUbasepriSet
    interrupt.o(i.IntPrioritySet) refers to interrupt.o(.constdata) for .constdata
    interrupt.o(i.IntRegister) refers to interrupt.o(vtable) for vtable
    interrupt.o(i.IntUnregister) refers to interrupt.o(i._IntDefaultHandler) for _IntDefaultHandler
    interrupt.o(i.IntUnregister) refers to interrupt.o(vtable) for vtable
    pwm.o(i.PWMFaultIntRegister) refers to interrupt.o(i.IntRegister) for IntRegister
    pwm.o(i.PWMFaultIntRegister) refers to interrupt.o(i.IntEnable) for IntEnable
    pwm.o(i.PWMFaultIntUnregister) refers to interrupt.o(i.IntDisable) for IntDisable
    pwm.o(i.PWMFaultIntUnregister) refers to interrupt.o(i.IntUnregister) for IntUnregister
    pwm.o(i.PWMGenIntRegister) refers to pwm.o(i._PWMGenIntNumberGet) for _PWMGenIntNumberGet
    pwm.o(i.PWMGenIntRegister) refers to interrupt.o(i.IntRegister) for IntRegister
    pwm.o(i.PWMGenIntRegister) refers to interrupt.o(i.IntEnable) for IntEnable
    pwm.o(i.PWMGenIntUnregister) refers to pwm.o(i._PWMGenIntNumberGet) for _PWMGenIntNumberGet
    pwm.o(i.PWMGenIntUnregister) refers to interrupt.o(i.IntDisable) for IntDisable
    pwm.o(i.PWMGenIntUnregister) refers to interrupt.o(i.IntUnregister) for IntUnregister
    sysctl.o(i.SysCtlClockFreqSet) refers to sysctl.o(.constdata) for .constdata
    sysctl.o(i.SysCtlClockGet) refers to sysctl.o(.constdata) for .constdata
    sysctl.o(i.SysCtlClockSet) refers to sysctl.o(.emb_text) for SysCtlDelay
    sysctl.o(i.SysCtlDeepSleep) refers to cpu.o(.emb_text) for CPUwfi
    sysctl.o(i.SysCtlDeepSleepClockConfigSet) refers to sysctl.o(.constdata) for .constdata
    sysctl.o(i.SysCtlIntRegister) refers to interrupt.o(i.IntRegister) for IntRegister
    sysctl.o(i.SysCtlIntRegister) refers to interrupt.o(i.IntEnable) for IntEnable
    sysctl.o(i.SysCtlIntUnregister) refers to interrupt.o(i.IntDisable) for IntDisable
    sysctl.o(i.SysCtlIntUnregister) refers to interrupt.o(i.IntUnregister) for IntUnregister
    sysctl.o(i.SysCtlSleep) refers to cpu.o(.emb_text) for CPUwfi
    timer.o(i.TimerIntRegister) refers to interrupt.o(i.IntRegister) for IntRegister
    timer.o(i.TimerIntRegister) refers to interrupt.o(i.IntEnable) for IntEnable
    timer.o(i.TimerIntRegister) refers to timer.o(.constdata) for .constdata
    timer.o(i.TimerIntUnregister) refers to interrupt.o(i.IntDisable) for IntDisable
    timer.o(i.TimerIntUnregister) refers to interrupt.o(i.IntUnregister) for IntUnregister
    timer.o(i.TimerIntUnregister) refers to timer.o(.constdata) for .constdata
    uart.o(i.UARTIntRegister) refers to interrupt.o(i.IntRegister) for IntRegister
    uart.o(i.UARTIntRegister) refers to interrupt.o(i.IntEnable) for IntEnable
    uart.o(i.UARTIntRegister) refers to uart.o(.constdata) for .constdata
    uart.o(i.UARTIntUnregister) refers to interrupt.o(i.IntDisable) for IntDisable
    uart.o(i.UARTIntUnregister) refers to interrupt.o(i.IntUnregister) for IntUnregister
    uart.o(i.UARTIntUnregister) refers to uart.o(.constdata) for .constdata
    watchdog.o(i.WatchdogIntRegister) refers to interrupt.o(i.IntRegister) for IntRegister
    watchdog.o(i.WatchdogIntRegister) refers to interrupt.o(i.IntEnable) for IntEnable
    watchdog.o(i.WatchdogIntUnregister) refers to interrupt.o(i.IntDisable) for IntDisable
    watchdog.o(i.WatchdogIntUnregister) refers to interrupt.o(i.IntUnregister) for IntUnregister
    sw_crc.o(i.Crc16) refers to sw_crc.o(.constdata) for .constdata
    sw_crc.o(i.Crc16Array) refers to sw_crc.o(i.Crc16) for Crc16
    sw_crc.o(i.Crc16Array3) refers to sw_crc.o(.constdata) for .constdata
    sw_crc.o(i.Crc32) refers to sw_crc.o(.constdata) for .constdata
    sw_crc.o(i.Crc8CCITT) refers to sw_crc.o(.constdata) for .constdata
    rt_ctype_table.o(.text) refers to rt_locale_intlibspace.o(.text) for __rt_locale
    rt_ctype_table.o(.text) refers to lc_ctype_c.o(locale$$code) for _get_lc_ctype
    tolower.o(.text) refers to rt_ctype_table.o(.text) for __rt_ctype_table
    vsprintf.o(.text) refers (Special) to _printf_a.o(.ARM.Collect$$_printf_percent$$00000006) for _printf_a
    vsprintf.o(.text) refers (Special) to _printf_c.o(.ARM.Collect$$_printf_percent$$00000013) for _printf_c
    vsprintf.o(.text) refers (Special) to _printf_charcount.o(.text) for _printf_charcount
    vsprintf.o(.text) refers (Special) to _printf_d.o(.ARM.Collect$$_printf_percent$$00000009) for _printf_d
    vsprintf.o(.text) refers (Special) to _printf_e.o(.ARM.Collect$$_printf_percent$$00000004) for _printf_e
    vsprintf.o(.text) refers (Special) to _printf_f.o(.ARM.Collect$$_printf_percent$$00000003) for _printf_f
    vsprintf.o(.text) refers (Special) to printf1.o(x$fpl$printf1) for _printf_fp_dec
    vsprintf.o(.text) refers (Special) to printf2.o(x$fpl$printf2) for _printf_fp_hex
    vsprintf.o(.text) refers (Special) to _printf_g.o(.ARM.Collect$$_printf_percent$$00000005) for _printf_g
    vsprintf.o(.text) refers (Special) to _printf_i.o(.ARM.Collect$$_printf_percent$$00000008) for _printf_i
    vsprintf.o(.text) refers (Special) to _printf_dec.o(.text) for _printf_int_dec
    vsprintf.o(.text) refers (Special) to _printf_l.o(.ARM.Collect$$_printf_percent$$00000012) for _printf_l
    vsprintf.o(.text) refers (Special) to _printf_lc.o(.ARM.Collect$$_printf_percent$$00000015) for _printf_lc
    vsprintf.o(.text) refers (Special) to _printf_ll.o(.ARM.Collect$$_printf_percent$$00000007) for _printf_ll
    vsprintf.o(.text) refers (Special) to _printf_lld.o(.ARM.Collect$$_printf_percent$$0000000E) for _printf_lld
    vsprintf.o(.text) refers (Special) to _printf_lli.o(.ARM.Collect$$_printf_percent$$0000000D) for _printf_lli
    vsprintf.o(.text) refers (Special) to _printf_llo.o(.ARM.Collect$$_printf_percent$$00000010) for _printf_llo
    vsprintf.o(.text) refers (Special) to _printf_llu.o(.ARM.Collect$$_printf_percent$$0000000F) for _printf_llu
    vsprintf.o(.text) refers (Special) to _printf_llx.o(.ARM.Collect$$_printf_percent$$00000011) for _printf_llx
    vsprintf.o(.text) refers (Special) to _printf_longlong_dec.o(.text) for _printf_longlong_dec
    vsprintf.o(.text) refers (Special) to _printf_hex_int_ll_ptr.o(.text) for _printf_longlong_hex
    vsprintf.o(.text) refers (Special) to _printf_oct_int_ll.o(.text) for _printf_longlong_oct
    vsprintf.o(.text) refers (Special) to _printf_ls.o(.ARM.Collect$$_printf_percent$$00000016) for _printf_ls
    vsprintf.o(.text) refers (Special) to _printf_n.o(.ARM.Collect$$_printf_percent$$00000001) for _printf_n
    vsprintf.o(.text) refers (Special) to _printf_o.o(.ARM.Collect$$_printf_percent$$0000000B) for _printf_o
    vsprintf.o(.text) refers (Special) to _printf_p.o(.ARM.Collect$$_printf_percent$$00000002) for _printf_p
    vsprintf.o(.text) refers (Special) to _printf_percent.o(.ARM.Collect$$_printf_percent$$00000000) for _printf_percent
    vsprintf.o(.text) refers (Special) to _printf_pad.o(.text) for _printf_post_padding
    vsprintf.o(.text) refers (Special) to _printf_s.o(.ARM.Collect$$_printf_percent$$00000014) for _printf_s
    vsprintf.o(.text) refers (Special) to _printf_str.o(.text) for _printf_str
    vsprintf.o(.text) refers (Special) to _printf_truncate.o(.text) for _printf_truncate_signed
    vsprintf.o(.text) refers (Special) to _printf_u.o(.ARM.Collect$$_printf_percent$$0000000A) for _printf_u
    vsprintf.o(.text) refers (Special) to _printf_wctomb.o(.text) for _printf_wctomb
    vsprintf.o(.text) refers (Special) to _printf_x.o(.ARM.Collect$$_printf_percent$$0000000C) for _printf_x
    vsprintf.o(.text) refers to _printf_char_common.o(.text) for _printf_char_common
    vsprintf.o(.text) refers to _sputc.o(.text) for _sputc
    __2sprintf.o(.text) refers to _printf_char_common.o(.text) for _printf_char_common
    __2sprintf.o(.text) refers to _sputc.o(.text) for _sputc
    __2snprintf.o(.text) refers to _printf_char_common.o(.text) for _printf_char_common
    __2snprintf.o(.text) refers to _sputc.o(.text) for _sputc
    __2snprintf.o(.text) refers to _snputc.o(.text) for _snputc
    noretval__2sprintf.o(.text) refers to _printf_char_common.o(.text) for _printf_char_common
    noretval__2sprintf.o(.text) refers to _sputc.o(.text) for _sputc
    noretval__2snprintf.o(.text) refers to _printf_char_common.o(.text) for _printf_char_common
    noretval__2snprintf.o(.text) refers to _sputc.o(.text) for _sputc
    noretval__2snprintf.o(.text) refers to _snputc.o(.text) for _snputc
    __printf.o(.text) refers to _printf_percent.o(.ARM.Collect$$_printf_percent$$00000000) for _printf_percent
    _printf_str.o(.text) refers (Special) to _printf_char.o(.text) for _printf_cs_common
    _printf_str.o(.text) refers (Weak) to _printf_pad.o(.text) for _printf_pre_padding
    _printf_str.o(.text) refers (Weak) to _printf_pad.o(.text) for _printf_post_padding
    _printf_dec.o(.text) refers (Weak) to _printf_truncate.o(.text) for _printf_truncate_signed
    _printf_dec.o(.text) refers (Weak) to _printf_truncate.o(.text) for _printf_truncate_unsigned
    _printf_dec.o(.text) refers to _printf_intcommon.o(.text) for _printf_int_common
    _printf_wctomb.o(.text) refers (Special) to _printf_wchar.o(.text) for _printf_lcs_common
    _printf_wctomb.o(.text) refers to _wcrtomb.o(.text) for _wcrtomb
    _printf_wctomb.o(.text) refers (Weak) to _printf_pad.o(.text) for _printf_pre_padding
    _printf_wctomb.o(.text) refers (Weak) to _printf_pad.o(.text) for _printf_post_padding
    _printf_wctomb.o(.text) refers to _printf_wctomb.o(.constdata) for .constdata
    _printf_wctomb.o(.constdata) refers (Special) to _printf_wchar.o(.text) for _printf_lcs_common
    _printf_oct_ll.o(.text) refers to _printf_intcommon.o(.text) for _printf_int_common
    _printf_oct_int.o(.text) refers (Weak) to _printf_truncate.o(.text) for _printf_truncate_unsigned
    _printf_oct_int.o(.text) refers to _printf_intcommon.o(.text) for _printf_int_common
    _printf_oct_int_ll.o(.text) refers to _printf_intcommon.o(.text) for _printf_int_common
    _printf_oct_int_ll.o(.text) refers (Weak) to _printf_truncate.o(.text) for _printf_truncate_unsigned
    _printf_hex_ll.o(.text) refers to _printf_intcommon.o(.text) for _printf_int_common
    _printf_hex_ll.o(.text) refers to _printf_hex_ll.o(.constdata) for .constdata
    _printf_hex_int.o(.text) refers (Weak) to _printf_truncate.o(.text) for _printf_truncate_unsigned
    _printf_hex_int.o(.text) refers to _printf_intcommon.o(.text) for _printf_int_common
    _printf_hex_int.o(.text) refers to _printf_hex_int.o(.constdata) for .constdata
    _printf_hex_int_ll.o(.text) refers to _printf_intcommon.o(.text) for _printf_int_common
    _printf_hex_int_ll.o(.text) refers (Weak) to _printf_truncate.o(.text) for _printf_truncate_unsigned
    _printf_hex_int_ll.o(.text) refers to _printf_hex_int_ll.o(.constdata) for .constdata
    _printf_hex_ptr.o(.text) refers to _printf_intcommon.o(.text) for _printf_int_common
    _printf_hex_ptr.o(.text) refers to _printf_hex_ptr.o(.constdata) for .constdata
    _printf_hex_int_ptr.o(.text) refers to _printf_intcommon.o(.text) for _printf_int_common
    _printf_hex_int_ptr.o(.text) refers (Weak) to _printf_truncate.o(.text) for _printf_truncate_unsigned
    _printf_hex_int_ptr.o(.text) refers to _printf_hex_int_ptr.o(.constdata) for .constdata
    _printf_hex_ll_ptr.o(.text) refers to _printf_intcommon.o(.text) for _printf_int_common
    _printf_hex_ll_ptr.o(.text) refers to _printf_hex_ll_ptr.o(.constdata) for .constdata
    _printf_hex_int_ll_ptr.o(.text) refers to _printf_intcommon.o(.text) for _printf_int_common
    _printf_hex_int_ll_ptr.o(.text) refers (Weak) to _printf_truncate.o(.text) for _printf_truncate_unsigned
    _printf_hex_int_ll_ptr.o(.text) refers to _printf_hex_int_ll_ptr.o(.constdata) for .constdata
    __printf_flags.o(.text) refers to _printf_percent.o(.ARM.Collect$$_printf_percent$$00000000) for _printf_percent
    __printf_flags.o(.text) refers to __printf_flags.o(.constdata) for .constdata
    __printf_ss.o(.text) refers to _printf_percent.o(.ARM.Collect$$_printf_percent$$00000000) for _printf_percent
    __printf_flags_ss.o(.text) refers to _printf_percent.o(.ARM.Collect$$_printf_percent$$00000000) for _printf_percent
    __printf_flags_ss.o(.text) refers to __printf_flags_ss.o(.constdata) for .constdata
    __printf_wp.o(.text) refers to __printf_wp.o(i._is_digit) for _is_digit
    __printf_wp.o(.text) refers to _printf_percent.o(.ARM.Collect$$_printf_percent$$00000000) for _printf_percent
    __printf_flags_wp.o(.text) refers to __printf_wp.o(i._is_digit) for _is_digit
    __printf_flags_wp.o(.text) refers to _printf_percent.o(.ARM.Collect$$_printf_percent$$00000000) for _printf_percent
    __printf_flags_wp.o(.text) refers to __printf_flags_wp.o(.constdata) for .constdata
    __printf_ss_wp.o(.text) refers to __printf_wp.o(i._is_digit) for _is_digit
    __printf_ss_wp.o(.text) refers to _printf_percent.o(.ARM.Collect$$_printf_percent$$00000000) for _printf_percent
    __printf_flags_ss_wp.o(.text) refers to __printf_wp.o(i._is_digit) for _is_digit
    __printf_flags_ss_wp.o(.text) refers to _printf_percent.o(.ARM.Collect$$_printf_percent$$00000000) for _printf_percent
    __printf_flags_ss_wp.o(.text) refers to __printf_flags_ss_wp.o(.constdata) for .constdata
    _printf_c.o(.ARM.Collect$$_printf_percent$$00000013) refers (Weak) to _printf_char.o(.text) for _printf_char
    _printf_s.o(.ARM.Collect$$_printf_percent$$00000014) refers (Weak) to _printf_char.o(.text) for _printf_string
    _printf_n.o(.ARM.Collect$$_printf_percent$$00000001) refers (Weak) to _printf_charcount.o(.text) for _printf_charcount
    _printf_x.o(.ARM.Collect$$_printf_percent$$0000000C) refers (Weak) to _printf_hex_int_ll_ptr.o(.text) for _printf_int_hex
    _printf_p.o(.ARM.Collect$$_printf_percent$$00000002) refers (Weak) to _printf_hex_int_ll_ptr.o(.text) for _printf_hex_ptr
    _printf_o.o(.ARM.Collect$$_printf_percent$$0000000B) refers (Weak) to _printf_oct_int_ll.o(.text) for _printf_int_oct
    _printf_i.o(.ARM.Collect$$_printf_percent$$00000008) refers (Weak) to _printf_dec.o(.text) for _printf_int_dec
    _printf_d.o(.ARM.Collect$$_printf_percent$$00000009) refers (Weak) to _printf_dec.o(.text) for _printf_int_dec
    _printf_u.o(.ARM.Collect$$_printf_percent$$0000000A) refers (Weak) to _printf_dec.o(.text) for _printf_int_dec
    _printf_percent.o(.ARM.Collect$$_printf_percent$$00000000) refers (Special) to _printf_percent_end.o(.ARM.Collect$$_printf_percent$$00000017) for _printf_percent_end
    _printf_lc.o(.ARM.Collect$$_printf_percent$$00000015) refers (Special) to _printf_l.o(.ARM.Collect$$_printf_percent$$00000012) for _printf_l
    _printf_lc.o(.ARM.Collect$$_printf_percent$$00000015) refers (Weak) to _printf_wchar.o(.text) for _printf_wchar
    __0sscanf.o(.text) refers to scanf_char.o(.text) for __vfscanf_char
    __0sscanf.o(.text) refers to _sgetc.o(.text) for _sgetc
    _scanf_int.o(.text) refers to _chval.o(.text) for _chval
    atoi.o(.text) refers to rt_errno_addr_intlibspace.o(.text) for __aeabi_errno_addr
    atoi.o(.text) refers to strtol.o(.text) for strtol
    atol.o(.text) refers to rt_errno_addr_intlibspace.o(.text) for __aeabi_errno_addr
    atol.o(.text) refers to strtol.o(.text) for strtol
    rand.o(.emb_text) refers (Special) to libinit2.o(.ARM.Collect$$libinit$$0000000B) for __rt_lib_init_rand_2
    rand.o(.emb_text) refers to rand.o(.text) for _rand_init
    rand.o(.emb_text) refers to rand.o(.bss) for _random_number_data
    rand.o(.text) refers (Special) to libinit2.o(.ARM.Collect$$libinit$$0000000B) for __rt_lib_init_rand_2
    rand.o(.text) refers to rand.o(.bss) for .bss
    rand.o(.bss) refers (Special) to libinit2.o(.ARM.Collect$$libinit$$0000000B) for __rt_lib_init_rand_2
    strtok.o(.text) refers to strtok_int.o(.text) for __strtok_internal
    strtok.o(.text) refers to strtok.o(.data) for .data
    rt_memcpy_v6.o(.text) refers to rt_memcpy_w.o(.text) for __aeabi_memcpy4
    aeabi_memset.o(.text) refers to rt_memclr.o(.text) for _memset
    rt_memclr.o(.text) refers to rt_memclr_w.o(.text) for _memset_w
    strncpy.o(.text) refers to rt_memclr.o(.text) for __aeabi_memclr
    __main.o(!!!main) refers to rtentry.o(.ARM.Collect$$rtentry$$00000000) for __rt_entry
    d2f.o(x$fpl$d2f) refers (Special) to usenofp.o(x$fpl$usenofp) for __I$use$fp
    d2f.o(x$fpl$d2f) refers to fretinf.o(x$fpl$fretinf) for __fpl_fretinf
    d2f.o(x$fpl$d2f) refers to dnaninf.o(x$fpl$dnaninf) for __fpl_dnaninf
    ddiv.o(x$fpl$drdiv) refers (Special) to usenofp.o(x$fpl$usenofp) for __I$use$fp
    ddiv.o(x$fpl$drdiv) refers to ddiv.o(x$fpl$ddiv) for ddiv_entry
    ddiv.o(x$fpl$ddiv) refers (Special) to usenofp.o(x$fpl$usenofp) for __I$use$fp
    ddiv.o(x$fpl$ddiv) refers to dretinf.o(x$fpl$dretinf) for __fpl_dretinf
    ddiv.o(x$fpl$ddiv) refers to dnaninf.o(x$fpl$dnaninf) for __fpl_dnaninf
    dflt_clz.o(x$fpl$dfltu) refers (Special) to usenofp.o(x$fpl$usenofp) for __I$use$fp
    dflt_clz.o(x$fpl$dflt) refers (Special) to usenofp.o(x$fpl$usenofp) for __I$use$fp
    dflt_clz.o(x$fpl$dfltn) refers (Special) to usenofp.o(x$fpl$usenofp) for __I$use$fp
    f2d.o(x$fpl$f2d) refers (Special) to usenofp.o(x$fpl$usenofp) for __I$use$fp
    f2d.o(x$fpl$f2d) refers to fnaninf.o(x$fpl$fnaninf) for __fpl_fnaninf
    f2d.o(x$fpl$f2d) refers to dretinf.o(x$fpl$dretinf) for __fpl_dretinf
    rtentry.o(.ARM.Collect$$rtentry$$00000000) refers (Special) to rtentry2.o(.ARM.Collect$$rtentry$$0000000A) for __rt_entry_li
    rtentry.o(.ARM.Collect$$rtentry$$00000000) refers (Special) to rtentry2.o(.ARM.Collect$$rtentry$$0000000D) for __rt_entry_main
    rtentry.o(.ARM.Collect$$rtentry$$00000000) refers (Special) to rtentry2.o(.ARM.Collect$$rtentry$$0000000C) for __rt_entry_postli_1
    rtentry.o(.ARM.Collect$$rtentry$$00000000) refers (Special) to rtentry2.o(.ARM.Collect$$rtentry$$00000009) for __rt_entry_postsh_1
    rtentry.o(.ARM.Collect$$rtentry$$00000000) refers (Special) to rtentry2.o(.ARM.Collect$$rtentry$$00000002) for __rt_entry_presh_1
    rtentry.o(.ARM.Collect$$rtentry$$00000000) refers (Special) to rtentry4.o(.ARM.Collect$$rtentry$$00000004) for __rt_entry_sh
    rt_locale.o(.text) refers to rt_locale.o(.bss) for __rt_locale_data
    rt_locale_intlibspace.o(.text) refers to libspace.o(.bss) for __libspace_start
    rt_errno_addr.o(.text) refers to rt_errno_addr.o(.bss) for __aeabi_errno_addr_data
    rt_errno_addr_intlibspace.o(.text) refers to libspace.o(.bss) for __libspace_start
    _printf_intcommon.o(.text) refers (Weak) to _printf_pad.o(.text) for _printf_pre_padding
    _printf_intcommon.o(.text) refers (Weak) to _printf_pad.o(.text) for _printf_pre_padding
    _printf_intcommon.o(.text) refers (Weak) to _printf_pad.o(.text) for _printf_post_padding
    _printf_char_common.o(.text) refers to __printf_flags_ss_wp.o(.text) for __printf
    _printf_char.o(.text) refers (Weak) to _printf_str.o(.text) for _printf_str
    _printf_wchar.o(.text) refers (Weak) to _printf_wctomb.o(.text) for _printf_wctomb
    _printf_longlong_dec.o(.text) refers to lludiv10.o(.text) for _ll_udiv10
    _printf_longlong_dec.o(.text) refers to _printf_intcommon.o(.text) for _printf_int_common
    _printf_f.o(.ARM.Collect$$_printf_percent$$00000003) refers (Weak) to printf1.o(x$fpl$printf1) for _printf_fp_dec
    _printf_e.o(.ARM.Collect$$_printf_percent$$00000004) refers (Weak) to printf1.o(x$fpl$printf1) for _printf_fp_dec
    _printf_g.o(.ARM.Collect$$_printf_percent$$00000005) refers (Weak) to printf1.o(x$fpl$printf1) for _printf_fp_dec
    _printf_a.o(.ARM.Collect$$_printf_percent$$00000006) refers (Weak) to printf2.o(x$fpl$printf2) for _printf_fp_hex
    _printf_lli.o(.ARM.Collect$$_printf_percent$$0000000D) refers (Special) to _printf_ll.o(.ARM.Collect$$_printf_percent$$00000007) for _printf_ll
    _printf_lli.o(.ARM.Collect$$_printf_percent$$0000000D) refers (Weak) to _printf_longlong_dec.o(.text) for _printf_longlong_dec
    _printf_lld.o(.ARM.Collect$$_printf_percent$$0000000E) refers (Special) to _printf_ll.o(.ARM.Collect$$_printf_percent$$00000007) for _printf_ll
    _printf_lld.o(.ARM.Collect$$_printf_percent$$0000000E) refers (Weak) to _printf_longlong_dec.o(.text) for _printf_longlong_dec
    _printf_llu.o(.ARM.Collect$$_printf_percent$$0000000F) refers (Special) to _printf_ll.o(.ARM.Collect$$_printf_percent$$00000007) for _printf_ll
    _printf_llu.o(.ARM.Collect$$_printf_percent$$0000000F) refers (Weak) to _printf_longlong_dec.o(.text) for _printf_longlong_dec
    _printf_ls.o(.ARM.Collect$$_printf_percent$$00000016) refers (Special) to _printf_l.o(.ARM.Collect$$_printf_percent$$00000012) for _printf_l
    _printf_ls.o(.ARM.Collect$$_printf_percent$$00000016) refers (Weak) to _printf_wchar.o(.text) for _printf_wstring
    _printf_llo.o(.ARM.Collect$$_printf_percent$$00000010) refers (Special) to _printf_ll.o(.ARM.Collect$$_printf_percent$$00000007) for _printf_ll
    _printf_llo.o(.ARM.Collect$$_printf_percent$$00000010) refers (Weak) to _printf_oct_int_ll.o(.text) for _printf_ll_oct
    _printf_llx.o(.ARM.Collect$$_printf_percent$$00000011) refers (Special) to _printf_ll.o(.ARM.Collect$$_printf_percent$$00000007) for _printf_ll
    _printf_llx.o(.ARM.Collect$$_printf_percent$$00000011) refers (Weak) to _printf_hex_int_ll_ptr.o(.text) for _printf_ll_hex
    scanf_char.o(.text) refers to _scanf.o(.text) for __vfscanf
    scanf_char.o(.text) refers to isspace.o(.text) for isspace
    strtol.o(.text) refers to rt_ctype_table.o(.text) for __rt_ctype_table
    strtol.o(.text) refers to _strtoul.o(.text) for _strtoul
    strtol.o(.text) refers to rt_errno_addr_intlibspace.o(.text) for __aeabi_errno_addr
    _wcrtomb.o(.text) refers to rt_ctype_table.o(.text) for __rt_ctype_table
    lc_ctype_c.o(locale$$data) refers (Special) to libinit2.o(.ARM.Collect$$libinit$$00000010) for __rt_lib_init_lc_ctype_2
    lc_ctype_c.o(locale$$code) refers (Special) to libinit2.o(.ARM.Collect$$libinit$$00000010) for __rt_lib_init_lc_ctype_2
    lc_ctype_c.o(locale$$code) refers to strcmpv7m.o(.text) for strcmp
    lc_ctype_c.o(locale$$code) refers to lc_ctype_c.o(locale$$data) for __lcctype_c_name
    strtok_int.o(.text) refers to strspn.o(.text) for strspn
    strtok_int.o(.text) refers to strcspn.o(.text) for strcspn
    libinit2.o(.ARM.Collect$$libinit$$00000001) refers to fpinit.o(x$fpl$fpinit) for _fp_init
    libinit2.o(.ARM.Collect$$libinit$$0000000B) refers (Weak) to rand.o(.text) for _rand_init
    libinit2.o(.ARM.Collect$$libinit$$0000000D) refers (Weak) to rt_locale_intlibspace.o(.text) for __rt_locale
    libinit2.o(.ARM.Collect$$libinit$$0000000E) refers to libinit2.o(.ARM.Collect$$libinit$$0000000D) for .ARM.Collect$$libinit$$0000000D
    libinit2.o(.ARM.Collect$$libinit$$00000010) refers to libinit2.o(.ARM.Collect$$libinit$$0000000D) for .ARM.Collect$$libinit$$0000000D
    libinit2.o(.ARM.Collect$$libinit$$00000010) refers (Weak) to lc_ctype_c.o(locale$$code) for _get_lc_ctype
    libinit2.o(.ARM.Collect$$libinit$$00000012) refers to libinit2.o(.ARM.Collect$$libinit$$0000000D) for .ARM.Collect$$libinit$$0000000D
    libinit2.o(.ARM.Collect$$libinit$$00000014) refers to libinit2.o(.ARM.Collect$$libinit$$0000000D) for .ARM.Collect$$libinit$$0000000D
    libinit2.o(.ARM.Collect$$libinit$$00000014) refers (Weak) to lc_numeric_c.o(locale$$code) for _get_lc_numeric
    libinit2.o(.ARM.Collect$$libinit$$00000016) refers to libinit2.o(.ARM.Collect$$libinit$$0000000D) for .ARM.Collect$$libinit$$0000000D
    libinit2.o(.ARM.Collect$$libinit$$00000024) refers to argv_veneer.o(.emb_text) for __ARM_argv_veneer
    libinit2.o(.ARM.Collect$$libinit$$00000025) refers to argv_veneer.o(.emb_text) for __ARM_argv_veneer
    dnaninf.o(x$fpl$dnaninf) refers (Special) to usenofp.o(x$fpl$usenofp) for __I$use$fp
    dretinf.o(x$fpl$dretinf) refers (Special) to usenofp.o(x$fpl$usenofp) for __I$use$fp
    fnaninf.o(x$fpl$fnaninf) refers (Special) to usenofp.o(x$fpl$usenofp) for __I$use$fp
    fretinf.o(x$fpl$fretinf) refers (Special) to usenofp.o(x$fpl$usenofp) for __I$use$fp
    printf1.o(x$fpl$printf1) refers to _printf_fp_dec.o(.text) for _printf_fp_dec_real
    printf2.o(x$fpl$printf2) refers to _printf_fp_hex.o(.text) for _printf_fp_hex_real
    printf2b.o(x$fpl$printf2) refers to _printf_fp_hex.o(.text) for _printf_fp_hex_real
    libspace.o(.text) refers to libspace.o(.bss) for __libspace_start
    rtentry2.o(.ARM.Collect$$rtentry$$00000008) refers to boardinit2.o(.text) for _platform_post_stackheap_init
    rtentry2.o(.ARM.Collect$$rtentry$$0000000A) refers to libinit.o(.ARM.Collect$$libinit$$00000000) for __rt_lib_init
    rtentry2.o(.ARM.Collect$$rtentry$$0000000B) refers to boardinit3.o(.text) for _platform_post_lib_init
    rtentry2.o(.ARM.Collect$$rtentry$$0000000D) refers to main.o(.text) for main
    rtentry2.o(.ARM.Collect$$rtentry$$0000000D) refers to exit.o(.text) for exit
    rtentry2.o(.ARM.exidx) refers to rtentry2.o(.ARM.Collect$$rtentry$$00000001) for .ARM.Collect$$rtentry$$00000001
    rtentry2.o(.ARM.exidx) refers to rtentry2.o(.ARM.Collect$$rtentry$$00000008) for .ARM.Collect$$rtentry$$00000008
    rtentry2.o(.ARM.exidx) refers to rtentry2.o(.ARM.Collect$$rtentry$$0000000A) for .ARM.Collect$$rtentry$$0000000A
    rtentry2.o(.ARM.exidx) refers to rtentry2.o(.ARM.Collect$$rtentry$$0000000B) for .ARM.Collect$$rtentry$$0000000B
    rtentry2.o(.ARM.exidx) refers to rtentry2.o(.ARM.Collect$$rtentry$$0000000D) for .ARM.Collect$$rtentry$$0000000D
    rtentry4.o(.ARM.Collect$$rtentry$$00000004) refers to sys_stackheap_outer.o(.text) for __user_setup_stackheap
    rtentry4.o(.ARM.exidx) refers to rtentry4.o(.ARM.Collect$$rtentry$$00000004) for .ARM.Collect$$rtentry$$00000004
    isspace.o(.text) refers to rt_ctype_table.o(.text) for __rt_ctype_table
    _printf_fp_dec.o(.text) refers (Special) to usenofp.o(x$fpl$usenofp) for __I$use$fp
    _printf_fp_dec.o(.text) refers (Special) to lc_numeric_c.o(locale$$code) for _get_lc_numeric
    _printf_fp_dec.o(.text) refers to bigflt0.o(.text) for _btod_etento
    _printf_fp_dec.o(.text) refers to btod.o(CL$$btod_d2e) for _btod_d2e
    _printf_fp_dec.o(.text) refers to btod.o(CL$$btod_ediv) for _btod_ediv
    _printf_fp_dec.o(.text) refers to btod.o(CL$$btod_emul) for _btod_emul
    _printf_fp_dec.o(.text) refers to lludiv10.o(.text) for _ll_udiv10
    _printf_fp_dec.o(.text) refers to fpclassify.o(i.__ARM_fpclassify) for __ARM_fpclassify
    _printf_fp_dec.o(.text) refers to _printf_fp_infnan.o(.text) for _printf_fp_infnan
    _printf_fp_dec.o(.text) refers (Weak) to _printf_pad.o(.text) for _printf_pre_padding
    _printf_fp_dec.o(.text) refers (Weak) to _printf_pad.o(.text) for _printf_pre_padding
    _printf_fp_dec.o(.text) refers to rt_locale_intlibspace.o(.text) for __rt_locale
    _printf_fp_dec.o(.text) refers (Weak) to _printf_pad.o(.text) for _printf_post_padding
    _printf_fp_hex.o(.text) refers (Special) to usenofp.o(x$fpl$usenofp) for __I$use$fp
    _printf_fp_hex.o(.text) refers to fpclassify.o(i.__ARM_fpclassify) for __ARM_fpclassify
    _printf_fp_hex.o(.text) refers to _printf_fp_infnan.o(.text) for _printf_fp_infnan
    _printf_fp_hex.o(.text) refers (Weak) to _printf_pad.o(.text) for _printf_pre_padding
    _printf_fp_hex.o(.text) refers (Weak) to _printf_pad.o(.text) for _printf_pre_padding
    _printf_fp_hex.o(.text) refers (Weak) to _printf_pad.o(.text) for _printf_post_padding
    _printf_fp_hex.o(.text) refers to _printf_fp_hex.o(.constdata) for .constdata
    _printf_fp_hex.o(.constdata) refers (Special) to usenofp.o(x$fpl$usenofp) for __I$use$fp
    _scanf.o(.text) refers (Weak) to _scanf_int.o(.text) for _scanf_int
    _strtoul.o(.text) refers to _chval.o(.text) for _chval
    _strtoul.o(.text) refers to rt_errno_addr_intlibspace.o(.text) for __aeabi_errno_addr
    argv_veneer.o(.emb_text) refers to no_argv.o(.text) for __ARM_get_argv
    sys_stackheap_outer.o(.text) refers to libspace.o(.text) for __user_perproc_libspace
    sys_stackheap_outer.o(.text) refers to startup_rvmdk.o(.text) for __user_initial_stackheap
    _printf_fp_infnan.o(.text) refers (Weak) to _printf_pad.o(.text) for _printf_pre_padding
    _printf_fp_infnan.o(.text) refers (Weak) to _printf_pad.o(.text) for _printf_post_padding
    bigflt0.o(.text) refers (Special) to usenofp.o(x$fpl$usenofp) for __I$use$fp
    bigflt0.o(.text) refers to btod.o(CL$$btod_emul) for _btod_emul
    bigflt0.o(.text) refers to btod.o(CL$$btod_ediv) for _btod_ediv
    bigflt0.o(.text) refers to bigflt0.o(.constdata) for .constdata
    bigflt0.o(.constdata) refers (Special) to usenofp.o(x$fpl$usenofp) for __I$use$fp
    btod.o(CL$$btod_d2e) refers (Special) to usenofp.o(x$fpl$usenofp) for __I$use$fp
    btod.o(CL$$btod_d2e) refers to btod.o(CL$$btod_d2e_norm_op1) for _d2e_norm_op1
    btod.o(CL$$btod_d2e_norm_op1) refers (Special) to usenofp.o(x$fpl$usenofp) for __I$use$fp
    btod.o(CL$$btod_d2e_norm_op1) refers to btod.o(CL$$btod_d2e_denorm_low) for _d2e_denorm_low
    btod.o(CL$$btod_d2e_denorm_low) refers (Special) to usenofp.o(x$fpl$usenofp) for __I$use$fp
    btod.o(CL$$btod_emul) refers (Special) to usenofp.o(x$fpl$usenofp) for __I$use$fp
    btod.o(CL$$btod_emul) refers to btod.o(CL$$btod_mult_common) for __btod_mult_common
    btod.o(CL$$btod_emul) refers to btod.o(CL$$btod_e2e) for _e2e
    btod.o(CL$$btod_ediv) refers (Special) to usenofp.o(x$fpl$usenofp) for __I$use$fp
    btod.o(CL$$btod_ediv) refers to btod.o(CL$$btod_div_common) for __btod_div_common
    btod.o(CL$$btod_ediv) refers to btod.o(CL$$btod_e2e) for _e2e
    btod.o(CL$$btod_emuld) refers (Special) to usenofp.o(x$fpl$usenofp) for __I$use$fp
    btod.o(CL$$btod_emuld) refers to btod.o(CL$$btod_mult_common) for __btod_mult_common
    btod.o(CL$$btod_emuld) refers to btod.o(CL$$btod_e2d) for _e2d
    btod.o(CL$$btod_edivd) refers (Special) to usenofp.o(x$fpl$usenofp) for __I$use$fp
    btod.o(CL$$btod_edivd) refers to btod.o(CL$$btod_div_common) for __btod_div_common
    btod.o(CL$$btod_edivd) refers to btod.o(CL$$btod_e2d) for _e2d
    btod.o(CL$$btod_e2e) refers (Special) to usenofp.o(x$fpl$usenofp) for __I$use$fp
    btod.o(CL$$btod_e2d) refers (Special) to usenofp.o(x$fpl$usenofp) for __I$use$fp
    btod.o(CL$$btod_e2d) refers to btod.o(CL$$btod_e2e) for _e2e
    btod.o(CL$$btod_mult_common) refers (Special) to usenofp.o(x$fpl$usenofp) for __I$use$fp
    btod.o(CL$$btod_div_common) refers (Special) to usenofp.o(x$fpl$usenofp) for __I$use$fp
    lc_numeric_c.o(locale$$data) refers (Special) to libinit2.o(.ARM.Collect$$libinit$$00000014) for __rt_lib_init_lc_numeric_2
    lc_numeric_c.o(locale$$code) refers (Special) to libinit2.o(.ARM.Collect$$libinit$$00000014) for __rt_lib_init_lc_numeric_2
    lc_numeric_c.o(locale$$code) refers to strcmpv7m.o(.text) for strcmp
    lc_numeric_c.o(locale$$code) refers to lc_numeric_c.o(locale$$data) for __lcnum_c_name
    exit.o(.text) refers to rtexit.o(.ARM.Collect$$rtexit$$00000000) for __rt_exit
    _get_argv_nomalloc.o(.text) refers (Special) to hrguard.o(.text) for __heap_region$guard
    _get_argv_nomalloc.o(.text) refers to defsig_rtmem_outer.o(.text) for __rt_SIGRTMEM
    _get_argv_nomalloc.o(.text) refers to sys_command.o(.text) for _sys_command_string
    libinit.o(.ARM.Collect$$libinit$$00000000) refers (Special) to libinit2.o(.ARM.Collect$$libinit$$0000002C) for __rt_lib_init_alloca_1
    libinit.o(.ARM.Collect$$libinit$$00000000) refers (Special) to libinit2.o(.ARM.Collect$$libinit$$0000002A) for __rt_lib_init_argv_1
    libinit.o(.ARM.Collect$$libinit$$00000000) refers (Special) to libinit2.o(.ARM.Collect$$libinit$$00000019) for __rt_lib_init_atexit_1
    libinit.o(.ARM.Collect$$libinit$$00000000) refers (Special) to libinit2.o(.ARM.Collect$$libinit$$0000001F) for __rt_lib_init_clock_1
    libinit.o(.ARM.Collect$$libinit$$00000000) refers (Special) to libinit2.o(.ARM.Collect$$libinit$$00000030) for __rt_lib_init_cpp_1
    libinit.o(.ARM.Collect$$libinit$$00000000) refers (Special) to libinit2.o(.ARM.Collect$$libinit$$0000002E) for __rt_lib_init_exceptions_1
    libinit.o(.ARM.Collect$$libinit$$00000000) refers (Special) to libinit2.o(.ARM.Collect$$libinit$$00000001) for __rt_lib_init_fp_1
    libinit.o(.ARM.Collect$$libinit$$00000000) refers (Special) to libinit2.o(.ARM.Collect$$libinit$$0000001D) for __rt_lib_init_fp_trap_1
    libinit.o(.ARM.Collect$$libinit$$00000000) refers (Special) to libinit2.o(.ARM.Collect$$libinit$$00000021) for __rt_lib_init_getenv_1
    libinit.o(.ARM.Collect$$libinit$$00000000) refers (Special) to libinit2.o(.ARM.Collect$$libinit$$00000008) for __rt_lib_init_heap_1
    libinit.o(.ARM.Collect$$libinit$$00000000) refers (Special) to libinit2.o(.ARM.Collect$$libinit$$0000000F) for __rt_lib_init_lc_collate_1
    libinit.o(.ARM.Collect$$libinit$$00000000) refers (Special) to libinit2.o(.ARM.Collect$$libinit$$00000011) for __rt_lib_init_lc_ctype_1
    libinit.o(.ARM.Collect$$libinit$$00000000) refers (Special) to libinit2.o(.ARM.Collect$$libinit$$00000013) for __rt_lib_init_lc_monetary_1
    libinit.o(.ARM.Collect$$libinit$$00000000) refers (Special) to libinit2.o(.ARM.Collect$$libinit$$00000015) for __rt_lib_init_lc_numeric_1
    libinit.o(.ARM.Collect$$libinit$$00000000) refers (Special) to libinit2.o(.ARM.Collect$$libinit$$00000017) for __rt_lib_init_lc_time_1
    libinit.o(.ARM.Collect$$libinit$$00000000) refers (Special) to libinit2.o(.ARM.Collect$$libinit$$0000000C) for __rt_lib_init_rand_1
    libinit.o(.ARM.Collect$$libinit$$00000000) refers (Special) to libinit2.o(.ARM.Collect$$libinit$$00000031) for __rt_lib_init_return
    libinit.o(.ARM.Collect$$libinit$$00000000) refers (Special) to libinit2.o(.ARM.Collect$$libinit$$0000001B) for __rt_lib_init_signal_1
    libinit.o(.ARM.Collect$$libinit$$00000000) refers (Special) to libinit2.o(.ARM.Collect$$libinit$$00000023) for __rt_lib_init_stdio_1
    libinit.o(.ARM.Collect$$libinit$$00000000) refers (Special) to libinit2.o(.ARM.Collect$$libinit$$0000000A) for __rt_lib_init_user_alloc_1
    istatus.o(x$fpl$ieeestatus) refers (Special) to usenofp.o(x$fpl$usenofp) for __I$use$fp
    fpclassify.o(i.__ARM_fpclassify) refers (Special) to usenofp.o(x$fpl$usenofp) for __I$use$fp
    sys_command.o(.text) refers (Special) to use_no_semi.o(.text) for __I$use$semihosting
    sys_command.o(.text) refers (Special) to indicate_semi.o(.text) for __semihosting_library_function
    rtexit.o(.ARM.Collect$$rtexit$$00000000) refers (Special) to rtexit2.o(.ARM.Collect$$rtexit$$00000004) for __rt_exit_exit
    rtexit.o(.ARM.Collect$$rtexit$$00000000) refers (Special) to rtexit2.o(.ARM.Collect$$rtexit$$00000003) for __rt_exit_ls
    rtexit.o(.ARM.Collect$$rtexit$$00000000) refers (Special) to rtexit2.o(.ARM.Collect$$rtexit$$00000002) for __rt_exit_prels_1
    rtexit.o(.ARM.exidx) refers (Special) to rtexit2.o(.ARM.Collect$$rtexit$$00000004) for __rt_exit_exit
    rtexit.o(.ARM.exidx) refers (Special) to rtexit2.o(.ARM.Collect$$rtexit$$00000003) for __rt_exit_ls
    rtexit.o(.ARM.exidx) refers (Special) to rtexit2.o(.ARM.Collect$$rtexit$$00000002) for __rt_exit_prels_1
    rtexit.o(.ARM.exidx) refers to rtexit.o(.ARM.Collect$$rtexit$$00000000) for .ARM.Collect$$rtexit$$00000000
    defsig_rtmem_outer.o(.text) refers to defsig_rtmem_inner.o(.text) for __rt_SIGRTMEM_inner
    defsig_rtmem_outer.o(.text) refers to defsig_exit.o(.text) for __sig_exit
    defsig_rtmem_formal.o(.text) refers to rt_raise.o(.text) for __rt_raise
    rtexit2.o(.ARM.Collect$$rtexit$$00000003) refers to libshutdown.o(.ARM.Collect$$libshutdown$$00000000) for __rt_lib_shutdown
    rtexit2.o(.ARM.Collect$$rtexit$$00000004) refers to sys_exit.o(.text) for _sys_exit
    rtexit2.o(.ARM.exidx) refers to rtexit2.o(.ARM.Collect$$rtexit$$00000001) for .ARM.Collect$$rtexit$$00000001
    rtexit2.o(.ARM.exidx) refers to rtexit2.o(.ARM.Collect$$rtexit$$00000003) for .ARM.Collect$$rtexit$$00000003
    rtexit2.o(.ARM.exidx) refers to rtexit2.o(.ARM.Collect$$rtexit$$00000004) for .ARM.Collect$$rtexit$$00000004
    rt_raise.o(.text) refers to __raise.o(.text) for __raise
    rt_raise.o(.text) refers to sys_exit.o(.text) for _sys_exit
    defsig_exit.o(.text) refers to sys_exit.o(.text) for _sys_exit
    defsig_rtmem_inner.o(.text) refers to defsig_general.o(.text) for __default_signal_display
    sys_exit.o(.text) refers (Special) to use_no_semi.o(.text) for __I$use$semihosting
    sys_exit.o(.text) refers (Special) to indicate_semi.o(.text) for __semihosting_library_function
    __raise.o(.text) refers to defsig.o(CL$$defsig) for __default_signal_handler
    defsig_general.o(.text) refers to sys_wrch.o(.text) for _ttywrch
    libshutdown.o(.ARM.Collect$$libshutdown$$00000000) refers (Special) to libshutdown2.o(.ARM.Collect$$libshutdown$$00000006) for __rt_lib_shutdown_fp_trap_1
    libshutdown.o(.ARM.Collect$$libshutdown$$00000000) refers (Special) to libshutdown2.o(.ARM.Collect$$libshutdown$$0000000E) for __rt_lib_shutdown_heap_1
    libshutdown.o(.ARM.Collect$$libshutdown$$00000000) refers (Special) to libshutdown2.o(.ARM.Collect$$libshutdown$$0000000F) for __rt_lib_shutdown_return
    libshutdown.o(.ARM.Collect$$libshutdown$$00000000) refers (Special) to libshutdown2.o(.ARM.Collect$$libshutdown$$00000009) for __rt_lib_shutdown_signal_1
    libshutdown.o(.ARM.Collect$$libshutdown$$00000000) refers (Special) to libshutdown2.o(.ARM.Collect$$libshutdown$$00000003) for __rt_lib_shutdown_stdio_1
    libshutdown.o(.ARM.Collect$$libshutdown$$00000000) refers (Special) to libshutdown2.o(.ARM.Collect$$libshutdown$$0000000B) for __rt_lib_shutdown_user_alloc_1
    sys_wrch.o(.text) refers (Special) to use_no_semi.o(.text) for __I$use$semihosting
    sys_wrch.o(.text) refers (Special) to indicate_semi.o(.text) for __semihosting_library_function
    defsig.o(CL$$defsig) refers to defsig_rtmem_inner.o(.text) for __rt_SIGRTMEM_inner
    defsig_abrt_inner.o(.text) refers to defsig_general.o(.text) for __default_signal_display
    defsig_fpe_inner.o(.text) refers to defsig_general.o(.text) for __default_signal_display
    defsig_rtred_inner.o(.text) refers to defsig_general.o(.text) for __default_signal_display
    defsig_stak_inner.o(.text) refers to defsig_general.o(.text) for __default_signal_display
    defsig_pvfn_inner.o(.text) refers to defsig_general.o(.text) for __default_signal_display
    defsig_cppl_inner.o(.text) refers to defsig_general.o(.text) for __default_signal_display
    defsig_segv_inner.o(.text) refers to defsig_general.o(.text) for __default_signal_display
    defsig_other.o(.text) refers to defsig_general.o(.text) for __default_signal_display


==============================================================================

Removing Unused input sections from the image.

    Removing croutine.o(.text), (752 bytes).
    Removing croutine.o(.bss), (100 bytes).
    Removing croutine.o(.data), (28 bytes).
    Removing upnpweb.o(.text), (1724 bytes).
    Removing upnpweb.o(.bss), (1024 bytes).
    Removing upnpweb.o(.conststring), (566 bytes).
    Removing upnpweb.o(.data), (20 bytes).
    Removing httpd_upnp.o(.text), (2916 bytes).
    Removing httpd_upnp.o(.conststring), (172 bytes).
    Removing httpd_upnp.o(.data), (8 bytes).
    Removing ssdp.o(.text), (2360 bytes).
    Removing ssdp.o(.constdata), (77 bytes).
    Removing ssdp.o(.data), (14 bytes).
    Removing emac.o(i.EMACAddrFilterGet), (12 bytes).
    Removing emac.o(i.EMACAddrFilterSet), (18 bytes).
    Removing emac.o(i.EMACDMAStateGet), (16 bytes).
    Removing emac.o(i.EMACFrameFilterGet), (12 bytes).
    Removing emac.o(i.EMACHashFilterBitCalculate), (36 bytes).
    Removing emac.o(i.EMACHashFilterGet), (10 bytes).
    Removing emac.o(i.EMACHashFilterSet), (6 bytes).
    Removing emac.o(i.EMACIntRegister), (18 bytes).
    Removing emac.o(i.EMACIntUnregister), (18 bytes).
    Removing emac.o(i.EMACNumAddrGet), (4 bytes).
    Removing emac.o(i.EMACPHYExtendedRead), (92 bytes).
    Removing emac.o(i.EMACPHYExtendedWrite), (68 bytes).
    Removing emac.o(i.EMACPHYPowerOff), (56 bytes).
    Removing emac.o(i.EMACPHYPowerOn), (56 bytes).
    Removing emac.o(i.EMACPowerManagementControlGet), (10 bytes).
    Removing emac.o(i.EMACPowerManagementControlSet), (16 bytes).
    Removing emac.o(i.EMACPowerManagementStatusGet), (8 bytes).
    Removing emac.o(i.EMACRemoteWakeUpFrameFilterGet), (24 bytes).
    Removing emac.o(i.EMACRemoteWakeUpFrameFilterSet), (24 bytes).
    Removing emac.o(i.EMACReset), (24 bytes).
    Removing emac.o(i.EMACRxDMACurrentBufferGet), (6 bytes).
    Removing emac.o(i.EMACRxDMACurrentDescriptorGet), (6 bytes).
    Removing emac.o(i.EMACRxDMADescriptorListGet), (6 bytes).
    Removing emac.o(i.EMACRxDMAPollDemand), (8 bytes).
    Removing emac.o(i.EMACRxDisable), (24 bytes).
    Removing emac.o(i.EMACRxWatchdogTimerSet), (6 bytes).
    Removing emac.o(i.EMACStatusGet), (4 bytes).
    Removing emac.o(i.EMACTimestampAddendSet), (30 bytes).
    Removing emac.o(i.EMACTimestampConfigGet), (14 bytes).
    Removing emac.o(i.EMACTimestampConfigSet), (24 bytes).
    Removing emac.o(i.EMACTimestampDisable), (16 bytes).
    Removing emac.o(i.EMACTimestampEnable), (40 bytes).
    Removing emac.o(i.EMACTimestampPPSCommand), (20 bytes).
    Removing emac.o(i.EMACTimestampPPSCommandModeSet), (20 bytes).
    Removing emac.o(i.EMACTimestampPPSPeriodSet), (10 bytes).
    Removing emac.o(i.EMACTimestampPPSSimpleModeSet), (22 bytes).
    Removing emac.o(i.EMACTimestampSysTimeGet), (30 bytes).
    Removing emac.o(i.EMACTimestampSysTimeSet), (34 bytes).
    Removing emac.o(i.EMACTimestampSysTimeUpdate), (46 bytes).
    Removing emac.o(i.EMACTimestampTargetIntDisable), (16 bytes).
    Removing emac.o(i.EMACTimestampTargetIntEnable), (16 bytes).
    Removing emac.o(i.EMACTimestampTargetSet), (20 bytes).
    Removing emac.o(i.EMACTxDMACurrentBufferGet), (6 bytes).
    Removing emac.o(i.EMACTxDMACurrentDescriptorGet), (6 bytes).
    Removing emac.o(i.EMACTxDMADescriptorListGet), (6 bytes).
    Removing emac.o(i.EMACTxDisable), (24 bytes).
    Removing emac.o(i.EMACTxFlush), (34 bytes).
    Removing emac.o(i.EMACVLANHashFilterBitCalculate), (36 bytes).
    Removing emac.o(i.EMACVLANHashFilterGet), (6 bytes).
    Removing emac.o(i.EMACVLANHashFilterSet), (6 bytes).
    Removing emac.o(i.EMACVLANRxConfigGet), (10 bytes).
    Removing emac.o(i.EMACVLANRxConfigSet), (6 bytes).
    Removing emac.o(i.EMACVLANTxConfigGet), (12 bytes).
    Removing emac.o(i.EMACVLANTxConfigSet), (8 bytes).
    Removing gpio.o(i.GPIOADCTriggerDisable), (14 bytes).
    Removing gpio.o(i.GPIOADCTriggerEnable), (14 bytes).
    Removing gpio.o(i.GPIODMATriggerDisable), (14 bytes).
    Removing gpio.o(i.GPIODMATriggerEnable), (14 bytes).
    Removing gpio.o(i.GPIODirModeGet), (34 bytes).
    Removing gpio.o(i.GPIOIntDisable), (14 bytes).
    Removing gpio.o(i.GPIOIntRegister), (88 bytes).
    Removing gpio.o(i.GPIOIntTypeGet), (68 bytes).
    Removing gpio.o(i.GPIOIntUnregister), (88 bytes).
    Removing gpio.o(i.GPIOPadConfigGet), (204 bytes).
    Removing gpio.o(i.GPIOPinTypeADC), (28 bytes).
    Removing gpio.o(i.GPIOPinTypeCAN), (28 bytes).
    Removing gpio.o(i.GPIOPinTypeCIR), (28 bytes).
    Removing gpio.o(i.GPIOPinTypeComparator), (28 bytes).
    Removing gpio.o(i.GPIOPinTypeEPI), (28 bytes).
    Removing gpio.o(i.GPIOPinTypeEthernetMII), (28 bytes).
    Removing gpio.o(i.GPIOPinTypeFan), (28 bytes).
    Removing gpio.o(i.GPIOPinTypeGPIOOutputOD), (28 bytes).
    Removing gpio.o(i.GPIOPinTypeI2C), (28 bytes).
    Removing gpio.o(i.GPIOPinTypeI2CSCL), (28 bytes).
    Removing gpio.o(i.GPIOPinTypeKBColumn), (28 bytes).
    Removing gpio.o(i.GPIOPinTypeKBRow), (28 bytes).
    Removing gpio.o(i.GPIOPinTypeLCD), (28 bytes).
    Removing gpio.o(i.GPIOPinTypeLEDSeq), (28 bytes).
    Removing gpio.o(i.GPIOPinTypeLPC), (28 bytes).
    Removing gpio.o(i.GPIOPinTypePECIRx), (28 bytes).
    Removing gpio.o(i.GPIOPinTypePECITx), (28 bytes).
    Removing gpio.o(i.GPIOPinTypeQEI), (28 bytes).
    Removing gpio.o(i.GPIOPinTypeSSI), (28 bytes).
    Removing gpio.o(i.GPIOPinTypeTimer), (28 bytes).
    Removing gpio.o(i.GPIOPinTypeUSBAnalog), (28 bytes).
    Removing gpio.o(i.GPIOPinTypeUSBDigital), (28 bytes).
    Removing gpio.o(i.GPIOPinTypeWakeHigh), (30 bytes).
    Removing gpio.o(i.GPIOPinTypeWakeLow), (30 bytes).
    Removing gpio.o(i.GPIOPinWakeStatus), (6 bytes).
    Removing interrupt.o(i.IntIsEnabled), (96 bytes).
    Removing interrupt.o(i.IntMasterDisable), (14 bytes).
    Removing interrupt.o(i.IntPendClear), (68 bytes).
    Removing interrupt.o(i.IntPendSet), (84 bytes).
    Removing interrupt.o(i.IntPriorityGet), (28 bytes).
    Removing interrupt.o(i.IntPriorityGroupingGet), (36 bytes).
    Removing interrupt.o(i.IntPriorityGroupingSet), (28 bytes).
    Removing interrupt.o(i.IntPriorityMaskGet), (4 bytes).
    Removing interrupt.o(i.IntPriorityMaskSet), (4 bytes).
    Removing interrupt.o(i.IntRegister), (52 bytes).
    Removing interrupt.o(i.IntTrigger), (12 bytes).
    Removing interrupt.o(i.IntUnregister), (20 bytes).
    Removing interrupt.o(i._IntDefaultHandler), (2 bytes).
    Removing interrupt.o(vtable), (620 bytes).
    Removing pwm.o(i.PWMClockGet), (26 bytes).
    Removing pwm.o(i.PWMDeadBandDisable), (12 bytes).
    Removing pwm.o(i.PWMDeadBandEnable), (16 bytes).
    Removing pwm.o(i.PWMFaultIntClear), (8 bytes).
    Removing pwm.o(i.PWMFaultIntClearExt), (4 bytes).
    Removing pwm.o(i.PWMFaultIntRegister), (92 bytes).
    Removing pwm.o(i.PWMFaultIntUnregister), (84 bytes).
    Removing pwm.o(i.PWMGenDisable), (10 bytes).
    Removing pwm.o(i.PWMGenFaultClear), (18 bytes).
    Removing pwm.o(i.PWMGenFaultConfigure), (18 bytes).
    Removing pwm.o(i.PWMGenFaultStatus), (18 bytes).
    Removing pwm.o(i.PWMGenFaultTriggerGet), (12 bytes).
    Removing pwm.o(i.PWMGenFaultTriggerSet), (12 bytes).
    Removing pwm.o(i.PWMGenIntClear), (6 bytes).
    Removing pwm.o(i.PWMGenIntRegister), (26 bytes).
    Removing pwm.o(i.PWMGenIntStatus), (12 bytes).
    Removing pwm.o(i.PWMGenIntTrigDisable), (10 bytes).
    Removing pwm.o(i.PWMGenIntTrigEnable), (10 bytes).
    Removing pwm.o(i.PWMGenIntUnregister), (22 bytes).
    Removing pwm.o(i.PWMIntDisable), (10 bytes).
    Removing pwm.o(i.PWMIntEnable), (8 bytes).
    Removing pwm.o(i.PWMIntStatus), (10 bytes).
    Removing pwm.o(i.PWMOutputFault), (16 bytes).
    Removing pwm.o(i.PWMOutputFaultLevel), (16 bytes).
    Removing pwm.o(i.PWMOutputInvert), (16 bytes).
    Removing pwm.o(i.PWMOutputUpdateMode), (62 bytes).
    Removing pwm.o(i.PWMPulseWidthGet), (32 bytes).
    Removing pwm.o(i.PWMSyncTimeBase), (4 bytes).
    Removing pwm.o(i.PWMSyncUpdate), (4 bytes).
    Removing pwm.o(i._PWMGenIntNumberGet), (224 bytes).
    Removing sysctl.o(i.SysCtlADCSpeedGet), (16 bytes).
    Removing sysctl.o(i.SysCtlADCSpeedSet), (28 bytes).
    Removing sysctl.o(i.SysCtlAltClkConfig), (12 bytes).
    Removing sysctl.o(i.SysCtlClockGet), (268 bytes).
    Removing sysctl.o(i.SysCtlClockOutConfig), (16 bytes).
    Removing sysctl.o(i.SysCtlClockSet), (284 bytes).
    Removing sysctl.o(i.SysCtlDeepSleepClockConfigSet), (168 bytes).
    Removing sysctl.o(i.SysCtlDeepSleepClockSet), (12 bytes).
    Removing sysctl.o(i.SysCtlDeepSleepPowerSet), (12 bytes).
    Removing sysctl.o(i.SysCtlFlashSectorSizeGet), (56 bytes).
    Removing sysctl.o(i.SysCtlFlashSizeGet), (56 bytes).
    Removing sysctl.o(i.SysCtlGPIOAHBDisable), (28 bytes).
    Removing sysctl.o(i.SysCtlGPIOAHBEnable), (24 bytes).
    Removing sysctl.o(i.SysCtlIntClear), (12 bytes).
    Removing sysctl.o(i.SysCtlIntDisable), (16 bytes).
    Removing sysctl.o(i.SysCtlIntEnable), (16 bytes).
    Removing sysctl.o(i.SysCtlIntRegister), (20 bytes).
    Removing sysctl.o(i.SysCtlIntStatus), (16 bytes).
    Removing sysctl.o(i.SysCtlIntUnregister), (18 bytes).
    Removing sysctl.o(i.SysCtlLDODeepSleepGet), (12 bytes).
    Removing sysctl.o(i.SysCtlLDODeepSleepSet), (12 bytes).
    Removing sysctl.o(i.SysCtlLDOSleepGet), (12 bytes).
    Removing sysctl.o(i.SysCtlLDOSleepSet), (12 bytes).
    Removing sysctl.o(i.SysCtlMOSCConfigSet), (12 bytes).
    Removing sysctl.o(i.SysCtlNMIClear), (16 bytes).
    Removing sysctl.o(i.SysCtlNMIStatus), (12 bytes).
    Removing sysctl.o(i.SysCtlPIOSCCalibrate), (76 bytes).
    Removing sysctl.o(i.SysCtlPWMClockGet), (24 bytes).
    Removing sysctl.o(i.SysCtlPWMClockSet), (20 bytes).
    Removing sysctl.o(i.SysCtlPeripheralClockGating), (68 bytes).
    Removing sysctl.o(i.SysCtlPeripheralDeepSleepDisable), (40 bytes).
    Removing sysctl.o(i.SysCtlPeripheralDeepSleepEnable), (40 bytes).
    Removing sysctl.o(i.SysCtlPeripheralDisable), (40 bytes).
    Removing sysctl.o(i.SysCtlPeripheralPowerOff), (40 bytes).
    Removing sysctl.o(i.SysCtlPeripheralPowerOn), (40 bytes).
    Removing sysctl.o(i.SysCtlPeripheralSleepDisable), (40 bytes).
    Removing sysctl.o(i.SysCtlPeripheralSleepEnable), (40 bytes).
    Removing sysctl.o(i.SysCtlReset), (16 bytes).
    Removing sysctl.o(i.SysCtlResetBehaviorGet), (12 bytes).
    Removing sysctl.o(i.SysCtlResetBehaviorSet), (12 bytes).
    Removing sysctl.o(i.SysCtlResetCauseClear), (16 bytes).
    Removing sysctl.o(i.SysCtlResetCauseGet), (12 bytes).
    Removing sysctl.o(i.SysCtlSRAMSizeGet), (16 bytes).
    Removing sysctl.o(i.SysCtlSleep), (4 bytes).
    Removing sysctl.o(i.SysCtlSleepPowerSet), (12 bytes).
    Removing sysctl.o(i.SysCtlUSBPLLDisable), (16 bytes).
    Removing sysctl.o(i.SysCtlUSBPLLEnable), (16 bytes).
    Removing sysctl.o(i.SysCtlVoltageEventClear), (16 bytes).
    Removing sysctl.o(i.SysCtlVoltageEventConfig), (12 bytes).
    Removing sysctl.o(i.SysCtlVoltageEventStatus), (12 bytes).
    Removing timer.o(i.TimerADCEventGet), (4 bytes).
    Removing timer.o(i.TimerADCEventSet), (4 bytes).
    Removing timer.o(i.TimerClockSourceGet), (6 bytes).
    Removing timer.o(i.TimerClockSourceSet), (6 bytes).
    Removing timer.o(i.TimerControlEvent), (18 bytes).
    Removing timer.o(i.TimerControlLevel), (22 bytes).
    Removing timer.o(i.TimerControlStall), (22 bytes).
    Removing timer.o(i.TimerControlTrigger), (76 bytes).
    Removing timer.o(i.TimerControlWaitOnTrigger), (48 bytes).
    Removing timer.o(i.TimerDMAEventGet), (4 bytes).
    Removing timer.o(i.TimerDMAEventSet), (4 bytes).
    Removing timer.o(i.TimerDisable), (16 bytes).
    Removing timer.o(i.TimerIntDisable), (10 bytes).
    Removing timer.o(i.TimerIntRegister), (104 bytes).
    Removing timer.o(i.TimerIntStatus), (10 bytes).
    Removing timer.o(i.TimerIntUnregister), (104 bytes).
    Removing timer.o(i.TimerLoadGet), (10 bytes).
    Removing timer.o(i.TimerLoadGet64), (14 bytes).
    Removing timer.o(i.TimerLoadSet64), (6 bytes).
    Removing timer.o(i.TimerMatchGet), (10 bytes).
    Removing timer.o(i.TimerMatchGet64), (14 bytes).
    Removing timer.o(i.TimerMatchSet), (18 bytes).
    Removing timer.o(i.TimerMatchSet64), (6 bytes).
    Removing timer.o(i.TimerPrescaleGet), (10 bytes).
    Removing timer.o(i.TimerPrescaleMatchGet), (10 bytes).
    Removing timer.o(i.TimerPrescaleMatchSet), (18 bytes).
    Removing timer.o(i.TimerPrescaleSet), (18 bytes).
    Removing timer.o(i.TimerRTCDisable), (10 bytes).
    Removing timer.o(i.TimerRTCEnable), (10 bytes).
    Removing timer.o(i.TimerSynchronize), (4 bytes).
    Removing timer.o(i.TimerValueGet64), (14 bytes).
    Removing timer.o(.constdata), (160 bytes).
    Removing uart.o(i.UART9BitAddrSend), (38 bytes).
    Removing uart.o(i.UART9BitAddrSet), (10 bytes).
    Removing uart.o(i.UART9BitDisable), (14 bytes).
    Removing uart.o(i.UART9BitEnable), (14 bytes).
    Removing uart.o(i.UARTBreakCtl), (18 bytes).
    Removing uart.o(i.UARTBusy), (8 bytes).
    Removing uart.o(i.UARTCharGet), (12 bytes).
    Removing uart.o(i.UARTCharPut), (12 bytes).
    Removing uart.o(i.UARTClockSourceGet), (6 bytes).
    Removing uart.o(i.UARTClockSourceSet), (6 bytes).
    Removing uart.o(i.UARTConfigGetExpClk), (46 bytes).
    Removing uart.o(i.UARTDMADisable), (10 bytes).
    Removing uart.o(i.UARTDMAEnable), (8 bytes).
    Removing uart.o(i.UARTDisable), (30 bytes).
    Removing uart.o(i.UARTDisableSIR), (10 bytes).
    Removing uart.o(i.UARTEnableSIR), (18 bytes).
    Removing uart.o(i.UARTFIFODisable), (10 bytes).
    Removing uart.o(i.UARTFIFOEnable), (10 bytes).
    Removing uart.o(i.UARTFIFOLevelGet), (16 bytes).
    Removing uart.o(i.UARTFIFOLevelSet), (6 bytes).
    Removing uart.o(i.UARTFlowControlGet), (8 bytes).
    Removing uart.o(i.UARTFlowControlSet), (12 bytes).
    Removing uart.o(i.UARTIntDisable), (10 bytes).
    Removing uart.o(i.UARTIntRegister), (88 bytes).
    Removing uart.o(i.UARTIntUnregister), (88 bytes).
    Removing uart.o(i.UARTModemControlClear), (14 bytes).
    Removing uart.o(i.UARTModemControlGet), (8 bytes).
    Removing uart.o(i.UARTModemControlSet), (12 bytes).
    Removing uart.o(i.UARTModemStatusGet), (10 bytes).
    Removing uart.o(i.UARTParityModeGet), (8 bytes).
    Removing uart.o(i.UARTParityModeSet), (12 bytes).
    Removing uart.o(i.UARTRxErrorClear), (6 bytes).
    Removing uart.o(i.UARTRxErrorGet), (8 bytes).
    Removing uart.o(i.UARTSmartCardDisable), (10 bytes).
    Removing uart.o(i.UARTSmartCardEnable), (22 bytes).
    Removing uart.o(i.UARTSpaceAvail), (10 bytes).
    Removing uart.o(i.UARTTxIntModeGet), (8 bytes).
    Removing uart.o(i.UARTTxIntModeSet), (12 bytes).
    Removing uart.o(.constdata), (128 bytes).
    Removing watchdog.o(i.WatchdogIntClear), (6 bytes).
    Removing watchdog.o(i.WatchdogIntEnable), (10 bytes).
    Removing watchdog.o(i.WatchdogIntRegister), (18 bytes).
    Removing watchdog.o(i.WatchdogIntStatus), (10 bytes).
    Removing watchdog.o(i.WatchdogIntTypeSet), (12 bytes).
    Removing watchdog.o(i.WatchdogIntUnregister), (18 bytes).
    Removing watchdog.o(i.WatchdogLock), (8 bytes).
    Removing watchdog.o(i.WatchdogLockState), (12 bytes).
    Removing watchdog.o(i.WatchdogReloadGet), (4 bytes).
    Removing watchdog.o(i.WatchdogResetDisable), (10 bytes).
    Removing watchdog.o(i.WatchdogRunning), (8 bytes).
    Removing watchdog.o(i.WatchdogStallDisable), (16 bytes).
    Removing watchdog.o(i.WatchdogStallEnable), (16 bytes).
    Removing watchdog.o(i.WatchdogUnlock), (12 bytes).
    Removing watchdog.o(i.WatchdogValueGet), (4 bytes).
    Removing sw_crc.o(i.Crc16), (216 bytes).
    Removing sw_crc.o(i.Crc16Array), (8 bytes).
    Removing sw_crc.o(i.Crc16Array3), (156 bytes).
    Removing sw_crc.o(i.Crc32), (216 bytes).
    Removing sw_crc.o(i.Crc8CCITT), (156 bytes).
    Removing sw_crc.o(.constdata), (1792 bytes).

288 unused section(s) (total 20067 bytes) removed from the image.

==============================================================================

Image Symbol Table

    Local Symbols

    Symbol Name                              Value     Ov Type        Size  Object(Section)

    ../clib/angel/boardlib.s                 0x00000000   Number         0  boardinit1.o ABSOLUTE
    ../clib/angel/boardlib.s                 0x00000000   Number         0  boardshut.o ABSOLUTE
    ../clib/angel/boardlib.s                 0x00000000   Number         0  boardinit2.o ABSOLUTE
    ../clib/angel/boardlib.s                 0x00000000   Number         0  boardinit3.o ABSOLUTE
    ../clib/angel/dczerorl2.s                0x00000000   Number         0  __dczerorl2.o ABSOLUTE
    ../clib/angel/handlers.s                 0x00000000   Number         0  __scatter_zi.o ABSOLUTE
    ../clib/angel/kernel.s                   0x00000000   Number         0  rtentry4.o ABSOLUTE
    ../clib/angel/kernel.s                   0x00000000   Number         0  rtexit2.o ABSOLUTE
    ../clib/angel/kernel.s                   0x00000000   Number         0  rtentry.o ABSOLUTE
    ../clib/angel/kernel.s                   0x00000000   Number         0  rtentry2.o ABSOLUTE
    ../clib/angel/kernel.s                   0x00000000   Number         0  rtexit.o ABSOLUTE
    ../clib/angel/rt.s                       0x00000000   Number         0  rt_ctype_table.o ABSOLUTE
    ../clib/angel/rt.s                       0x00000000   Number         0  rt_locale_intlibspace.o ABSOLUTE
    ../clib/angel/rt.s                       0x00000000   Number         0  rt_errno_addr.o ABSOLUTE
    ../clib/angel/rt.s                       0x00000000   Number         0  rt_locale.o ABSOLUTE
    ../clib/angel/rt.s                       0x00000000   Number         0  rt_raise.o ABSOLUTE
    ../clib/angel/rt.s                       0x00000000   Number         0  rt_errno_addr_intlibspace.o ABSOLUTE
    ../clib/angel/scatter.s                  0x00000000   Number         0  __scatter.o ABSOLUTE
    ../clib/angel/startup.s                  0x00000000   Number         0  __main.o ABSOLUTE
    ../clib/angel/sys.s                      0x00000000   Number         0  libspace.o ABSOLUTE
    ../clib/angel/sys.s                      0x00000000   Number         0  sys_stackheap_outer.o ABSOLUTE
    ../clib/angel/sys.s                      0x00000000   Number         0  indicate_semi.o ABSOLUTE
    ../clib/angel/sys.s                      0x00000000   Number         0  use_no_semi.o ABSOLUTE
    ../clib/angel/sysapp.c                   0x00000000   Number         0  sys_exit.o ABSOLUTE
    ../clib/angel/sysapp.c                   0x00000000   Number         0  sys_command.o ABSOLUTE
    ../clib/angel/sysapp.c                   0x00000000   Number         0  sys_wrch.o ABSOLUTE
    ../clib/armsys.c                         0x00000000   Number         0  argv_veneer.o ABSOLUTE
    ../clib/armsys.c                         0x00000000   Number         0  argv_veneer.o ABSOLUTE
    ../clib/armsys.c                         0x00000000   Number         0  no_argv.o ABSOLUTE
    ../clib/armsys.c                         0x00000000   Number         0  _get_argv_nomalloc.o ABSOLUTE
    ../clib/bigflt.c                         0x00000000   Number         0  bigflt0.o ABSOLUTE
    ../clib/btod.s                           0x00000000   Number         0  btod.o ABSOLUTE
    ../clib/ctype.c                          0x00000000   Number         0  tolower.o ABSOLUTE
    ../clib/ctype.c                          0x00000000   Number         0  isspace.o ABSOLUTE
    ../clib/heapalloc.c                      0x00000000   Number         0  hrguard.o ABSOLUTE
    ../clib/heapaux.c                        0x00000000   Number         0  heapauxi.o ABSOLUTE
    ../clib/libinit.s                        0x00000000   Number         0  libshutdown2.o ABSOLUTE
    ../clib/libinit.s                        0x00000000   Number         0  libshutdown.o ABSOLUTE
    ../clib/libinit.s                        0x00000000   Number         0  libinit.o ABSOLUTE
    ../clib/libinit.s                        0x00000000   Number         0  libinit2.o ABSOLUTE
    ../clib/locale.c                         0x00000000   Number         0  _wcrtomb.o ABSOLUTE
    ../clib/locale.s                         0x00000000   Number         0  lc_ctype_c.o ABSOLUTE
    ../clib/locale.s                         0x00000000   Number         0  lc_numeric_c.o ABSOLUTE
    ../clib/longlong.s                       0x00000000   Number         0  lludiv10.o ABSOLUTE
    ../clib/memcpset.s                       0x00000000   Number         0  rt_memclr_w.o ABSOLUTE
    ../clib/memcpset.s                       0x00000000   Number         0  rt_memcpy_v6.o ABSOLUTE
    ../clib/memcpset.s                       0x00000000   Number         0  rt_memcpy_w.o ABSOLUTE
    ../clib/memcpset.s                       0x00000000   Number         0  aeabi_memset.o ABSOLUTE
    ../clib/memcpset.s                       0x00000000   Number         0  strncpy.o ABSOLUTE
    ../clib/memcpset.s                       0x00000000   Number         0  strcmpv7m.o ABSOLUTE
    ../clib/memcpset.s                       0x00000000   Number         0  rt_memclr.o ABSOLUTE
    ../clib/misc.s                           0x00000000   Number         0  printf_stubs.o ABSOLUTE
    ../clib/printf.c                         0x00000000   Number         0  _snputc.o ABSOLUTE
    ../clib/printf.c                         0x00000000   Number         0  _printf_charcount.o ABSOLUTE
    ../clib/printf.c                         0x00000000   Number         0  _printf_wctomb.o ABSOLUTE
    ../clib/printf.c                         0x00000000   Number         0  _printf_oct_ll.o ABSOLUTE
    ../clib/printf.c                         0x00000000   Number         0  _printf_oct_int.o ABSOLUTE
    ../clib/printf.c                         0x00000000   Number         0  _printf_oct_int_ll.o ABSOLUTE
    ../clib/printf.c                         0x00000000   Number         0  _printf_hex_ll.o ABSOLUTE
    ../clib/printf.c                         0x00000000   Number         0  _printf_hex_int.o ABSOLUTE
    ../clib/printf.c                         0x00000000   Number         0  _printf_hex_int_ll.o ABSOLUTE
    ../clib/printf.c                         0x00000000   Number         0  _printf_hex_ptr.o ABSOLUTE
    ../clib/printf.c                         0x00000000   Number         0  _printf_hex_int_ptr.o ABSOLUTE
    ../clib/printf.c                         0x00000000   Number         0  _printf_fp_infnan.o ABSOLUTE
    ../clib/printf.c                         0x00000000   Number         0  _printf_hex_ll_ptr.o ABSOLUTE
    ../clib/printf.c                         0x00000000   Number         0  _printf_hex_int_ll_ptr.o ABSOLUTE
    ../clib/printf.c                         0x00000000   Number         0  __printf_flags.o ABSOLUTE
    ../clib/printf.c                         0x00000000   Number         0  __printf_ss.o ABSOLUTE
    ../clib/printf.c                         0x00000000   Number         0  __printf_flags_ss.o ABSOLUTE
    ../clib/printf.c                         0x00000000   Number         0  vsprintf.o ABSOLUTE
    ../clib/printf.c                         0x00000000   Number         0  __printf_flags_wp.o ABSOLUTE
    ../clib/printf.c                         0x00000000   Number         0  __printf_ss_wp.o ABSOLUTE
    ../clib/printf.c                         0x00000000   Number         0  __2sprintf.o ABSOLUTE
    ../clib/printf.c                         0x00000000   Number         0  __printf_flags_ss_wp.o ABSOLUTE
    ../clib/printf.c                         0x00000000   Number         0  noretval__2sprintf.o ABSOLUTE
    ../clib/printf.c                         0x00000000   Number         0  __printf_nopercent.o ABSOLUTE
    ../clib/printf.c                         0x00000000   Number         0  _printf_fp_hex.o ABSOLUTE
    ../clib/printf.c                         0x00000000   Number         0  _printf_fp_dec.o ABSOLUTE
    ../clib/printf.c                         0x00000000   Number         0  noretval__2snprintf.o ABSOLUTE
    ../clib/printf.c                         0x00000000   Number         0  __printf.o ABSOLUTE
    ../clib/printf.c                         0x00000000   Number         0  __printf_wp.o ABSOLUTE
    ../clib/printf.c                         0x00000000   Number         0  _printf_pad.o ABSOLUTE
    ../clib/printf.c                         0x00000000   Number         0  _printf_longlong_dec.o ABSOLUTE
    ../clib/printf.c                         0x00000000   Number         0  __2snprintf.o ABSOLUTE
    ../clib/printf.c                         0x00000000   Number         0  _printf_intcommon.o ABSOLUTE
    ../clib/printf.c                         0x00000000   Number         0  _printf_truncate.o ABSOLUTE
    ../clib/printf.c                         0x00000000   Number         0  _printf_char.o ABSOLUTE
    ../clib/printf.c                         0x00000000   Number         0  _printf_str.o ABSOLUTE
    ../clib/printf.c                         0x00000000   Number         0  _printf_char_common.o ABSOLUTE
    ../clib/printf.c                         0x00000000   Number         0  _printf_dec.o ABSOLUTE
    ../clib/printf.c                         0x00000000   Number         0  _printf_wchar.o ABSOLUTE
    ../clib/printf.c                         0x00000000   Number         0  _sputc.o ABSOLUTE
    ../clib/printf_percent.s                 0x00000000   Number         0  _printf_a.o ABSOLUTE
    ../clib/printf_percent.s                 0x00000000   Number         0  _printf_g.o ABSOLUTE
    ../clib/printf_percent.s                 0x00000000   Number         0  _printf_e.o ABSOLUTE
    ../clib/printf_percent.s                 0x00000000   Number         0  _printf_lc.o ABSOLUTE
    ../clib/printf_percent.s                 0x00000000   Number         0  _printf_percent.o ABSOLUTE
    ../clib/printf_percent.s                 0x00000000   Number         0  _printf_u.o ABSOLUTE
    ../clib/printf_percent.s                 0x00000000   Number         0  _printf_d.o ABSOLUTE
    ../clib/printf_percent.s                 0x00000000   Number         0  _printf_i.o ABSOLUTE
    ../clib/printf_percent.s                 0x00000000   Number         0  _printf_o.o ABSOLUTE
    ../clib/printf_percent.s                 0x00000000   Number         0  _printf_p.o ABSOLUTE
    ../clib/printf_percent.s                 0x00000000   Number         0  _printf_x.o ABSOLUTE
    ../clib/printf_percent.s                 0x00000000   Number         0  _printf_n.o ABSOLUTE
    ../clib/printf_percent.s                 0x00000000   Number         0  _printf_s.o ABSOLUTE
    ../clib/printf_percent.s                 0x00000000   Number         0  _printf_c.o ABSOLUTE
    ../clib/printf_percent.s                 0x00000000   Number         0  _printf_f.o ABSOLUTE
    ../clib/printf_percent.s                 0x00000000   Number         0  _printf_llx.o ABSOLUTE
    ../clib/printf_percent.s                 0x00000000   Number         0  _printf_llo.o ABSOLUTE
    ../clib/printf_percent.s                 0x00000000   Number         0  _printf_ls.o ABSOLUTE
    ../clib/printf_percent.s                 0x00000000   Number         0  _printf_l.o ABSOLUTE
    ../clib/printf_percent.s                 0x00000000   Number         0  _printf_ll.o ABSOLUTE
    ../clib/printf_percent.s                 0x00000000   Number         0  _printf_llu.o ABSOLUTE
    ../clib/printf_percent.s                 0x00000000   Number         0  _printf_lld.o ABSOLUTE
    ../clib/printf_percent.s                 0x00000000   Number         0  _printf_lli.o ABSOLUTE
    ../clib/printf_percent.s                 0x00000000   Number         0  _printf_percent_end.o ABSOLUTE
    ../clib/scanf.c                          0x00000000   Number         0  atol.o ABSOLUTE
    ../clib/scanf.c                          0x00000000   Number         0  strtol.o ABSOLUTE
    ../clib/scanf.c                          0x00000000   Number         0  __0sscanf.o ABSOLUTE
    ../clib/scanf.c                          0x00000000   Number         0  _scanf_int.o ABSOLUTE
    ../clib/scanf.c                          0x00000000   Number         0  atoi.o ABSOLUTE
    ../clib/scanf.c                          0x00000000   Number         0  _strtoul.o ABSOLUTE
    ../clib/scanf.c                          0x00000000   Number         0  _scanf.o ABSOLUTE
    ../clib/scanf.c                          0x00000000   Number         0  _sgetc.o ABSOLUTE
    ../clib/scanf.c                          0x00000000   Number         0  scanf_char.o ABSOLUTE
    ../clib/scanf.c                          0x00000000   Number         0  _chval.o ABSOLUTE
    ../clib/signal.c                         0x00000000   Number         0  defsig_other.o ABSOLUTE
    ../clib/signal.c                         0x00000000   Number         0  defsig_fpe_inner.o ABSOLUTE
    ../clib/signal.c                         0x00000000   Number         0  defsig_rtred_inner.o ABSOLUTE
    ../clib/signal.c                         0x00000000   Number         0  defsig_stak_inner.o ABSOLUTE
    ../clib/signal.c                         0x00000000   Number         0  defsig_cppl_inner.o ABSOLUTE
    ../clib/signal.c                         0x00000000   Number         0  defsig_segv_inner.o ABSOLUTE
    ../clib/signal.c                         0x00000000   Number         0  defsig_pvfn_inner.o ABSOLUTE
    ../clib/signal.c                         0x00000000   Number         0  defsig_rtmem_outer.o ABSOLUTE
    ../clib/signal.c                         0x00000000   Number         0  defsig_rtmem_formal.o ABSOLUTE
    ../clib/signal.c                         0x00000000   Number         0  defsig_exit.o ABSOLUTE
    ../clib/signal.c                         0x00000000   Number         0  defsig_abrt_inner.o ABSOLUTE
    ../clib/signal.c                         0x00000000   Number         0  defsig_rtmem_inner.o ABSOLUTE
    ../clib/signal.c                         0x00000000   Number         0  __raise.o ABSOLUTE
    ../clib/signal.c                         0x00000000   Number         0  defsig_general.o ABSOLUTE
    ../clib/signal.s                         0x00000000   Number         0  defsig.o ABSOLUTE
    ../clib/stdlib.c                         0x00000000   Number         0  rand.o ABSOLUTE
    ../clib/stdlib.c                         0x00000000   Number         0  rand.o ABSOLUTE
    ../clib/stdlib.c                         0x00000000   Number         0  exit.o ABSOLUTE
    ../clib/string.c                         0x00000000   Number         0  strspn.o ABSOLUTE
    ../clib/string.c                         0x00000000   Number         0  strcspn.o ABSOLUTE
    ../clib/string.c                         0x00000000   Number         0  strtok.o ABSOLUTE
    ../clib/string.c                         0x00000000   Number         0  strchr.o ABSOLUTE
    ../clib/string.c                         0x00000000   Number         0  strstr.o ABSOLUTE
    ../clib/string.c                         0x00000000   Number         0  memcmp.o ABSOLUTE
    ../clib/string.c                         0x00000000   Number         0  strcpy.o ABSOLUTE
    ../clib/string.c                         0x00000000   Number         0  strlen.o ABSOLUTE
    ../clib/string.c                         0x00000000   Number         0  strncmp.o ABSOLUTE
    ../clib/string.c                         0x00000000   Number         0  strcat.o ABSOLUTE
    ../clib/string.c                         0x00000000   Number         0  strtok_int.o ABSOLUTE
    ../fplib/d2f.s                           0x00000000   Number         0  d2f.o ABSOLUTE
    ../fplib/ddiv.s                          0x00000000   Number         0  ddiv.o ABSOLUTE
    ../fplib/dflt.s                          0x00000000   Number         0  dflt_clz.o ABSOLUTE
    ../fplib/dnaninf.s                       0x00000000   Number         0  dnaninf.o ABSOLUTE
    ../fplib/dretinf.s                       0x00000000   Number         0  dretinf.o ABSOLUTE
    ../fplib/f2d.s                           0x00000000   Number         0  f2d.o ABSOLUTE
    ../fplib/fnaninf.s                       0x00000000   Number         0  fnaninf.o ABSOLUTE
    ../fplib/fpinit.s                        0x00000000   Number         0  fpinit.o ABSOLUTE
    ../fplib/fretinf.s                       0x00000000   Number         0  fretinf.o ABSOLUTE
    ../fplib/istatus.s                       0x00000000   Number         0  istatus.o ABSOLUTE
    ../fplib/printf1.s                       0x00000000   Number         0  printf1.o ABSOLUTE
    ../fplib/printf2.s                       0x00000000   Number         0  printf2.o ABSOLUTE
    ../fplib/printf2a.s                      0x00000000   Number         0  printf2a.o ABSOLUTE
    ../fplib/printf2b.s                      0x00000000   Number         0  printf2b.o ABSOLUTE
    ../fplib/usenofp.s                       0x00000000   Number         0  usenofp.o ABSOLUTE
    ../mathlib/fpclassify.c                  0x00000000   Number         0  fpclassify.o ABSOLUTE
    Application\OSAL_Console.c               0x00000000   Number         0  osal_console.o ABSOLUTE
    Application\OSAL_Detect.c                0x00000000   Number         0  osal_detect.o ABSOLUTE
    Application\OSAL_RingBuf.c               0x00000000   Number         0  osal_ringbuf.o ABSOLUTE
    Application\OSAL_Soft_IIC.c              0x00000000   Number         0  osal_soft_iic.o ABSOLUTE
    Application\OSAL_Utility.c               0x00000000   Number         0  osal_utility.o ABSOLUTE
    Application\dsp_app.c                    0x00000000   Number         0  dsp_app.o ABSOLUTE
    Application\keyboard.c                   0x00000000   Number         0  keyboard.o ABSOLUTE
    Application\main.c                       0x00000000   Number         0  main.o ABSOLUTE
    Application\serial.c                     0x00000000   Number         0  serial.o ABSOLUTE
    Driver\CS485XX.c                         0x00000000   Number         0  cs485xx.o ABSOLUTE
    Driver\EPRom_driver.c                    0x00000000   Number         0  eprom_driver.o ABSOLUTE
    Driver\IR_driver.c                       0x00000000   Number         0  ir_driver.o ABSOLUTE
    Driver\Lcd_driver.c                      0x00000000   Number         0  lcd_driver.o ABSOLUTE
    Driver\cs4251x.c                         0x00000000   Number         0  cs4251x.o ABSOLUTE
    Driver\njw1195_driver.c                  0x00000000   Number         0  njw1195_driver.o ABSOLUTE
    Driver\sw_spi.c                          0x00000000   Number         0  sw_spi.o ABSOLUTE
    FreeRTOS\\portable\\port.c               0x00000000   Number         0  port.o ABSOLUTE
    FreeRTOS\croutine.c                      0x00000000   Number         0  croutine.o ABSOLUTE
    FreeRTOS\list.c                          0x00000000   Number         0  list.o ABSOLUTE
    FreeRTOS\portable\heap_4.c               0x00000000   Number         0  heap_4.o ABSOLUTE
    FreeRTOS\portable\port.c                 0x00000000   Number         0  port.o ABSOLUTE
    FreeRTOS\queue.c                         0x00000000   Number         0  queue.o ABSOLUTE
    FreeRTOS\tasks.c                         0x00000000   Number         0  tasks.o ABSOLUTE
    FreeRTOS\timers.c                        0x00000000   Number         0  timers.o ABSOLUTE
    Task\Console_Task.c                      0x00000000   Number         0  console_task.o ABSOLUTE
    Task\Display_Task.c                      0x00000000   Number         0  display_task.o ABSOLUTE
    Task\System_Task.c                       0x00000000   Number         0  system_task.o ABSOLUTE
    Upnp\Ssdp.c                              0x00000000   Number         0  ssdp.o ABSOLUTE
    Upnp\UpnpWeb.c                           0x00000000   Number         0  upnpweb.o ABSOLUTE
    Upnp\httpd_upnp.c                        0x00000000   Number         0  httpd_upnp.o ABSOLUTE
    Upnp\netconf.c                           0x00000000   Number         0  netconf.o ABSOLUTE
    cpu.c                                    0x00000000   Number         0  cpu.o ABSOLUTE
    cpu.c                                    0x00000000   Number         0  cpu.o ABSOLUTE
    dc.s                                     0x00000000   Number         0  dc.o ABSOLUTE
    emac.c                                   0x00000000   Number         0  emac.o ABSOLUTE
    gpio.c                                   0x00000000   Number         0  gpio.o ABSOLUTE
    interrupt.c                              0x00000000   Number         0  interrupt.o ABSOLUTE
    pwm.c                                    0x00000000   Number         0  pwm.o ABSOLUTE
    startup\bsp.c                            0x00000000   Number         0  bsp.o ABSOLUTE
    startup\startup_rvmdk.S                  0x00000000   Number         0  startup_rvmdk.o ABSOLUTE
    sw_crc.c                                 0x00000000   Number         0  sw_crc.o ABSOLUTE
    sysctl.c                                 0x00000000   Number         0  sysctl.o ABSOLUTE
    sysctl.c                                 0x00000000   Number         0  sysctl.o ABSOLUTE
    third_party\fatfs\port\mmc-dk-tm4c129x.c 0x00000000   Number         0  mmc-dk-tm4c129x.o ABSOLUTE
    third_party\fatfs\src\ff.c               0x00000000   Number         0  ff.o ABSOLUTE
    timer.c                                  0x00000000   Number         0  timer.o ABSOLUTE
    uart.c                                   0x00000000   Number         0  uart.o ABSOLUTE
    watchdog.c                               0x00000000   Number         0  watchdog.o ABSOLUTE
    web\enet_fs.c                            0x00000000   Number         0  enet_fs.o ABSOLUTE
    web\lwiplib.c                            0x00000000   Number         0  lwiplib.o ABSOLUTE
    web\web.c                                0x00000000   Number         0  web.o ABSOLUTE
    RESET                                    0x0000d000   Section      540  startup_rvmdk.o(RESET)
    $v0                                      0x0000d200   Number         0  startup_rvmdk.o(RESET)
    NmiSR                                    0x0000d215   Thumb Code     0  startup_rvmdk.o(RESET)
    IntDefaultHandler                        0x0000d219   Thumb Code     0  startup_rvmdk.o(RESET)
    !!!main                                  0x0000d21c   Section        8  __main.o(!!!main)
    !!!scatter                               0x0000d224   Section       52  __scatter.o(!!!scatter)
    !!dczerorl2                              0x0000d258   Section       90  __dczerorl2.o(!!dczerorl2)
    !!handler_zi                             0x0000d2b4   Section       28  __scatter_zi.o(!!handler_zi)
    .ARM.Collect$$_printf_percent$$00000000  0x0000d2d0   Section        0  _printf_percent.o(.ARM.Collect$$_printf_percent$$00000000)
    .ARM.Collect$$_printf_percent$$00000001  0x0000d2d0   Section        6  _printf_n.o(.ARM.Collect$$_printf_percent$$00000001)
    .ARM.Collect$$_printf_percent$$00000002  0x0000d2d6   Section        6  _printf_p.o(.ARM.Collect$$_printf_percent$$00000002)
    .ARM.Collect$$_printf_percent$$00000003  0x0000d2dc   Section        6  _printf_f.o(.ARM.Collect$$_printf_percent$$00000003)
    .ARM.Collect$$_printf_percent$$00000004  0x0000d2e2   Section        6  _printf_e.o(.ARM.Collect$$_printf_percent$$00000004)
    .ARM.Collect$$_printf_percent$$00000005  0x0000d2e8   Section        6  _printf_g.o(.ARM.Collect$$_printf_percent$$00000005)
    .ARM.Collect$$_printf_percent$$00000006  0x0000d2ee   Section        6  _printf_a.o(.ARM.Collect$$_printf_percent$$00000006)
    .ARM.Collect$$_printf_percent$$00000007  0x0000d2f4   Section       10  _printf_ll.o(.ARM.Collect$$_printf_percent$$00000007)
    .ARM.Collect$$_printf_percent$$00000008  0x0000d2fe   Section        6  _printf_i.o(.ARM.Collect$$_printf_percent$$00000008)
    .ARM.Collect$$_printf_percent$$00000009  0x0000d304   Section        6  _printf_d.o(.ARM.Collect$$_printf_percent$$00000009)
    .ARM.Collect$$_printf_percent$$0000000A  0x0000d30a   Section        6  _printf_u.o(.ARM.Collect$$_printf_percent$$0000000A)
    .ARM.Collect$$_printf_percent$$0000000B  0x0000d310   Section        6  _printf_o.o(.ARM.Collect$$_printf_percent$$0000000B)
    .ARM.Collect$$_printf_percent$$0000000C  0x0000d316   Section        6  _printf_x.o(.ARM.Collect$$_printf_percent$$0000000C)
    .ARM.Collect$$_printf_percent$$0000000D  0x0000d31c   Section        6  _printf_lli.o(.ARM.Collect$$_printf_percent$$0000000D)
    .ARM.Collect$$_printf_percent$$0000000E  0x0000d322   Section        6  _printf_lld.o(.ARM.Collect$$_printf_percent$$0000000E)
    .ARM.Collect$$_printf_percent$$0000000F  0x0000d328   Section        6  _printf_llu.o(.ARM.Collect$$_printf_percent$$0000000F)
    .ARM.Collect$$_printf_percent$$00000010  0x0000d32e   Section        6  _printf_llo.o(.ARM.Collect$$_printf_percent$$00000010)
    .ARM.Collect$$_printf_percent$$00000011  0x0000d334   Section        6  _printf_llx.o(.ARM.Collect$$_printf_percent$$00000011)
    .ARM.Collect$$_printf_percent$$00000012  0x0000d33a   Section       10  _printf_l.o(.ARM.Collect$$_printf_percent$$00000012)
    .ARM.Collect$$_printf_percent$$00000013  0x0000d344   Section        6  _printf_c.o(.ARM.Collect$$_printf_percent$$00000013)
    .ARM.Collect$$_printf_percent$$00000014  0x0000d34a   Section        6  _printf_s.o(.ARM.Collect$$_printf_percent$$00000014)
    .ARM.Collect$$_printf_percent$$00000015  0x0000d350   Section        6  _printf_lc.o(.ARM.Collect$$_printf_percent$$00000015)
    .ARM.Collect$$_printf_percent$$00000016  0x0000d356   Section        6  _printf_ls.o(.ARM.Collect$$_printf_percent$$00000016)
    .ARM.Collect$$_printf_percent$$00000017  0x0000d35c   Section        4  _printf_percent_end.o(.ARM.Collect$$_printf_percent$$00000017)
    .ARM.Collect$$libinit$$00000000          0x0000d360   Section        2  libinit.o(.ARM.Collect$$libinit$$00000000)
    .ARM.Collect$$libinit$$00000001          0x0000d362   Section        4  libinit2.o(.ARM.Collect$$libinit$$00000001)
    .ARM.Collect$$libinit$$00000008          0x0000d366   Section        0  libinit2.o(.ARM.Collect$$libinit$$00000008)
    .ARM.Collect$$libinit$$0000000A          0x0000d366   Section        0  libinit2.o(.ARM.Collect$$libinit$$0000000A)
    .ARM.Collect$$libinit$$0000000B          0x0000d366   Section        4  libinit2.o(.ARM.Collect$$libinit$$0000000B)
    .ARM.Collect$$libinit$$0000000C          0x0000d36a   Section        0  libinit2.o(.ARM.Collect$$libinit$$0000000C)
    .ARM.Collect$$libinit$$0000000D          0x0000d36a   Section        6  libinit2.o(.ARM.Collect$$libinit$$0000000D)
    .ARM.Collect$$libinit$$0000000F          0x0000d370   Section        0  libinit2.o(.ARM.Collect$$libinit$$0000000F)
    .ARM.Collect$$libinit$$00000010          0x0000d370   Section       12  libinit2.o(.ARM.Collect$$libinit$$00000010)
    .ARM.Collect$$libinit$$00000011          0x0000d37c   Section        0  libinit2.o(.ARM.Collect$$libinit$$00000011)
    .ARM.Collect$$libinit$$00000013          0x0000d37c   Section        0  libinit2.o(.ARM.Collect$$libinit$$00000013)
    .ARM.Collect$$libinit$$00000014          0x0000d37c   Section       10  libinit2.o(.ARM.Collect$$libinit$$00000014)
    .ARM.Collect$$libinit$$00000015          0x0000d386   Section        0  libinit2.o(.ARM.Collect$$libinit$$00000015)
    .ARM.Collect$$libinit$$00000017          0x0000d386   Section        0  libinit2.o(.ARM.Collect$$libinit$$00000017)
    .ARM.Collect$$libinit$$00000019          0x0000d386   Section        0  libinit2.o(.ARM.Collect$$libinit$$00000019)
    .ARM.Collect$$libinit$$0000001B          0x0000d386   Section        0  libinit2.o(.ARM.Collect$$libinit$$0000001B)
    .ARM.Collect$$libinit$$0000001D          0x0000d386   Section        0  libinit2.o(.ARM.Collect$$libinit$$0000001D)
    .ARM.Collect$$libinit$$0000001F          0x0000d386   Section        0  libinit2.o(.ARM.Collect$$libinit$$0000001F)
    .ARM.Collect$$libinit$$00000021          0x0000d386   Section        0  libinit2.o(.ARM.Collect$$libinit$$00000021)
    .ARM.Collect$$libinit$$00000023          0x0000d386   Section        0  libinit2.o(.ARM.Collect$$libinit$$00000023)
    .ARM.Collect$$libinit$$0000002A          0x0000d386   Section        0  libinit2.o(.ARM.Collect$$libinit$$0000002A)
    .ARM.Collect$$libinit$$0000002C          0x0000d386   Section        0  libinit2.o(.ARM.Collect$$libinit$$0000002C)
    .ARM.Collect$$libinit$$0000002E          0x0000d386   Section        0  libinit2.o(.ARM.Collect$$libinit$$0000002E)
    .ARM.Collect$$libinit$$00000030          0x0000d386   Section        0  libinit2.o(.ARM.Collect$$libinit$$00000030)
    .ARM.Collect$$libinit$$00000031          0x0000d386   Section        2  libinit2.o(.ARM.Collect$$libinit$$00000031)
    .ARM.Collect$$libshutdown$$00000000      0x0000d388   Section        2  libshutdown.o(.ARM.Collect$$libshutdown$$00000000)
    .ARM.Collect$$libshutdown$$00000003      0x0000d38a   Section        0  libshutdown2.o(.ARM.Collect$$libshutdown$$00000003)
    .ARM.Collect$$libshutdown$$00000006      0x0000d38a   Section        0  libshutdown2.o(.ARM.Collect$$libshutdown$$00000006)
    .ARM.Collect$$libshutdown$$00000009      0x0000d38a   Section        0  libshutdown2.o(.ARM.Collect$$libshutdown$$00000009)
    .ARM.Collect$$libshutdown$$0000000B      0x0000d38a   Section        0  libshutdown2.o(.ARM.Collect$$libshutdown$$0000000B)
    .ARM.Collect$$libshutdown$$0000000E      0x0000d38a   Section        0  libshutdown2.o(.ARM.Collect$$libshutdown$$0000000E)
    .ARM.Collect$$libshutdown$$0000000F      0x0000d38a   Section        2  libshutdown2.o(.ARM.Collect$$libshutdown$$0000000F)
    .ARM.Collect$$rtentry$$00000000          0x0000d38c   Section        0  rtentry.o(.ARM.Collect$$rtentry$$00000000)
    .ARM.Collect$$rtentry$$00000002          0x0000d38c   Section        0  rtentry2.o(.ARM.Collect$$rtentry$$00000002)
    .ARM.Collect$$rtentry$$00000004          0x0000d38c   Section        6  rtentry4.o(.ARM.Collect$$rtentry$$00000004)
    .ARM.Collect$$rtentry$$00000009          0x0000d392   Section        0  rtentry2.o(.ARM.Collect$$rtentry$$00000009)
    .ARM.Collect$$rtentry$$0000000A          0x0000d392   Section        4  rtentry2.o(.ARM.Collect$$rtentry$$0000000A)
    .ARM.Collect$$rtentry$$0000000C          0x0000d396   Section        0  rtentry2.o(.ARM.Collect$$rtentry$$0000000C)
    .ARM.Collect$$rtentry$$0000000D          0x0000d396   Section        8  rtentry2.o(.ARM.Collect$$rtentry$$0000000D)
    .ARM.Collect$$rtexit$$00000000           0x0000d39e   Section        2  rtexit.o(.ARM.Collect$$rtexit$$00000000)
    .ARM.Collect$$rtexit$$00000002           0x0000d3a0   Section        0  rtexit2.o(.ARM.Collect$$rtexit$$00000002)
    .ARM.Collect$$rtexit$$00000003           0x0000d3a0   Section        4  rtexit2.o(.ARM.Collect$$rtexit$$00000003)
    .ARM.Collect$$rtexit$$00000004           0x0000d3a4   Section        6  rtexit2.o(.ARM.Collect$$rtexit$$00000004)
    .emb_text                                0x0000d3ac   Section      174  port.o(.emb_text)
    $v0                                      0x0000d3ac   Number         0  port.o(.emb_text)
    .emb_text                                0x0000d45c   Section        6  sysctl.o(.emb_text)
    $v0                                      0x0000d45c   Number         0  sysctl.o(.emb_text)
    .emb_text                                0x0000d464   Section       38  cpu.o(.emb_text)
    $v0                                      0x0000d464   Number         0  cpu.o(.emb_text)
    .emb_text                                0x0000d48c   Section       52  rand.o(.emb_text)
    .text                                    0x0000d4c0   Section       24  startup_rvmdk.o(.text)
    $v0                                      0x0000d4c0   Number         0  startup_rvmdk.o(.text)
    .text                                    0x0000d4d8   Section        0  bsp.o(.text)
    .text                                    0x0000db34   Section        0  list.o(.text)
    .text                                    0x0000dbc8   Section        0  queue.o(.text)
    prvCopyDataToQueue                       0x0000dc83   Thumb Code   118  queue.o(.text)
    prvNotifyQueueSetContainer               0x0000dcf9   Thumb Code    56  queue.o(.text)
    prvUnlockQueue                           0x0000dd31   Thumb Code   148  queue.o(.text)
    prvIsQueueFull                           0x0000ddc5   Thumb Code    30  queue.o(.text)
    prvIsQueueEmpty                          0x0000df6b   Thumb Code    26  queue.o(.text)
    prvCopyDataFromQueue                     0x0000df85   Thumb Code    42  queue.o(.text)
    .text                                    0x0000e510   Section        0  tasks.o(.text)
    prvInitialiseTaskLists                   0x0000e511   Thumb Code    70  tasks.o(.text)
    prvInitialiseTCBVariables                0x0000e557   Thumb Code    90  tasks.o(.text)
    prvAllocateTCBAndStack                   0x0000e5b1   Thumb Code    58  tasks.o(.text)
    prvAddCurrentTaskToDelayedList           0x0000e969   Thumb Code    62  tasks.o(.text)
    prvDeleteTCB                             0x0000ee05   Thumb Code    18  tasks.o(.text)
    prvCheckTasksWaitingTermination          0x0000ee17   Thumb Code    86  tasks.o(.text)
    prvIdleTask                              0x0000ee6d   Thumb Code     8  tasks.o(.text)
    prvTaskCheckFreeStackSpace               0x0000f02b   Thumb Code    22  tasks.o(.text)
    .text                                    0x0000f220   Section        0  port.o(.text)
    prvTaskExitError                         0x0000f221   Thumb Code     8  port.o(.text)
    .text                                    0x0000f310   Section        0  heap_4.o(.text)
    prvInsertBlockIntoFreeList               0x0000f311   Thumb Code    96  heap_4.o(.text)
    prvHeapInit                              0x0000f371   Thumb Code    78  heap_4.o(.text)
    .text                                    0x0000f4c0   Section        0  main.o(.text)
    print_version                            0x0000f4d7   Thumb Code    42  main.o(.text)
    hal_init                                 0x0000f501   Thumb Code    44  main.o(.text)
    .text                                    0x0000f700   Section        0  serial.o(.text)
    c_printf                                 0x0000f783   Thumb Code    20  serial.o(.text)
    .text                                    0x0000f860   Section        0  osal_console.o(.text)
    find_cmd                                 0x0000f8d1   Thumb Code    44  osal_console.o(.text)
    cmd_process                              0x0000f8fd   Thumb Code    64  osal_console.o(.text)
    parse_line                               0x0000f93d   Thumb Code   104  osal_console.o(.text)
    .text                                    0x0000fabc   Section        0  keyboard.o(.text)
    key_back_handler                         0x0000fabd   Thumb Code    34  keyboard.o(.text)
    key_down_handler                         0x0000fadf   Thumb Code   190  keyboard.o(.text)
    key_enter_handler                        0x0000fb9d   Thumb Code   134  keyboard.o(.text)
    key_up_handler                           0x0000fc23   Thumb Code   134  keyboard.o(.text)
    volume_decrease_handler                  0x0000fca9   Thumb Code    86  keyboard.o(.text)
    volume_increase_handler                  0x0000fcff   Thumb Code    74  keyboard.o(.text)
    source_next_handler                      0x0000fd49   Thumb Code    46  keyboard.o(.text)
    source_prev_handler                      0x0000fd77   Thumb Code    44  keyboard.o(.text)
    preset_prev_handler                      0x0000fda3   Thumb Code    44  keyboard.o(.text)
    preset_next_handler                      0x0000fdcf   Thumb Code    46  keyboard.o(.text)
    bright_prev_handler                      0x0000fdfd   Thumb Code    44  keyboard.o(.text)
    bright_next_handler                      0x0000fe29   Thumb Code    46  keyboard.o(.text)
    load_code                                0x0000fe57   Thumb Code    56  keyboard.o(.text)
    sub_model_prev_handler                   0x0000fe8f   Thumb Code   130  keyboard.o(.text)
    sub_model_next_handler                   0x0000ff11   Thumb Code    46  keyboard.o(.text)
    input_gain_decrease_handler              0x0000ff3f   Thumb Code    76  keyboard.o(.text)
    input_gain_increase_handler              0x0000ff8b   Thumb Code    74  keyboard.o(.text)
    phrase_change                            0x0000ffd5   Thumb Code    74  keyboard.o(.text)
    sub_lowpass_increase                     0x0001001f   Thumb Code   258  keyboard.o(.text)
    sub_lowpass_decrease                     0x00010121   Thumb Code   258  keyboard.o(.text)
    sub_highpass_decrease                    0x00010223   Thumb Code   200  keyboard.o(.text)
    sub_highpass_increase                    0x000102eb   Thumb Code   204  keyboard.o(.text)
    lineout_highpass_decrease                0x000103b7   Thumb Code   102  keyboard.o(.text)
    lineout_highpass_increase                0x0001041d   Thumb Code   102  keyboard.o(.text)
    delay_switch_to_prev                     0x00010483   Thumb Code    50  keyboard.o(.text)
    delay_switch_to_next                     0x000104b5   Thumb Code    50  keyboard.o(.text)
    power_on_method_switch_to_prev           0x000104e7   Thumb Code    68  keyboard.o(.text)
    power_on_method_switch_to_next           0x0001052b   Thumb Code    72  keyboard.o(.text)
    delay_time_decrease                      0x00010573   Thumb Code   128  keyboard.o(.text)
    delay_time_increase                      0x000105f3   Thumb Code   132  keyboard.o(.text)
    change_reset_state                       0x00010677   Thumb Code    20  keyboard.o(.text)
    change_reset_confirm_state               0x0001068b   Thumb Code    20  keyboard.o(.text)
    sense_threshold_prev                     0x0001069f   Thumb Code    64  keyboard.o(.text)
    sense_threshold_next                     0x000106df   Thumb Code    64  keyboard.o(.text)
    sense_off_prev                           0x0001071f   Thumb Code    56  keyboard.o(.text)
    sense_off_next                           0x00010757   Thumb Code    66  keyboard.o(.text)
    factory_sub_select_next                  0x00010799   Thumb Code    22  keyboard.o(.text)
    factory_sub_select_prev                  0x000107af   Thumb Code    22  keyboard.o(.text)
    key_left_handler                         0x000107c5   Thumb Code   248  keyboard.o(.text)
    key_right_handler                        0x000108bd   Thumb Code   248  keyboard.o(.text)
    vol_menu_timeout_handler                 0x000109b5   Thumb Code    14  keyboard.o(.text)
    show_version_infor                       0x000109c3   Thumb Code    32  keyboard.o(.text)
    vol_mute_handler                         0x00010c19   Thumb Code    58  keyboard.o(.text)
    ir_on_handler                            0x00010c53   Thumb Code    34  keyboard.o(.text)
    ir_off_handler                           0x00010c75   Thumb Code    24  keyboard.o(.text)
    ir_preset_select_handler                 0x00010c8d   Thumb Code    38  keyboard.o(.text)
    ir_peq_state_control                     0x00010cb3   Thumb Code    80  keyboard.o(.text)
    .text                                    0x00010f78   Section        0  osal_soft_iic.o(.text)
    iic_half_delay                           0x00010f79   Thumb Code    12  osal_soft_iic.o(.text)
    iic_delay                                0x00010f85   Thumb Code    12  osal_soft_iic.o(.text)
    iic_start                                0x00010f91   Thumb Code    66  osal_soft_iic.o(.text)
    iic_stop                                 0x00010fd3   Thumb Code    54  osal_soft_iic.o(.text)
    iic_bit_out                              0x00011009   Thumb Code    56  osal_soft_iic.o(.text)
    iic_bit_in                               0x00011041   Thumb Code    56  osal_soft_iic.o(.text)
    iic_byte_in                              0x00011079   Thumb Code    88  osal_soft_iic.o(.text)
    iic_ack_in                               0x000110d1   Thumb Code    76  osal_soft_iic.o(.text)
    iic_byte_out                             0x0001111d   Thumb Code    72  osal_soft_iic.o(.text)
    .text                                    0x0001134c   Section        0  osal_utility.o(.text)
    .text                                    0x0001145c   Section        0  osal_ringbuf.o(.text)
    .text                                    0x000115cc   Section        0  osal_detect.o(.text)
    .text                                    0x00011870   Section        0  dsp_app.o(.text)
    do_eq_width_filter                       0x00011eb5   Thumb Code    56  dsp_app.o(.text)
    .text                                    0x00011fdc   Section        0  console_task.o(.text)
    .text                                    0x00012014   Section        0  system_task.o(.text)
    power_on_routine                         0x00012015   Thumb Code    32  system_task.o(.text)
    sys_update_protect_state                 0x00012035   Thumb Code    36  system_task.o(.text)
    power_on_timeout                         0x00012059   Thumb Code   116  system_task.o(.text)
    fix_hardware_bug                         0x000120cd   Thumb Code   314  system_task.o(.text)
    fix_power_bug                            0x000122c5   Thumb Code   110  system_task.o(.text)
    fix_power_off_bug                        0x00012333   Thumb Code    26  system_task.o(.text)
    sys_bled_flash                           0x00012379   Thumb Code   460  system_task.o(.text)
    sys_shutdown_handler                     0x000126f9   Thumb Code   114  system_task.o(.text)
    do_wake_up                               0x0001276b   Thumb Code    26  system_task.o(.text)
    sys_Rled_flash                           0x000127af   Thumb Code   282  system_task.o(.text)
    power_key_msg_handler                    0x000128c9   Thumb Code   258  system_task.o(.text)
    sys_code_pass_handler                    0x000129cb   Thumb Code    32  system_task.o(.text)
    sys_database_save                        0x000129eb   Thumb Code   232  system_task.o(.text)
    sys_msg_handler                          0x00012ad3   Thumb Code    90  system_task.o(.text)
    sys_nv_set_default                       0x00012b2d   Thumb Code  1174  system_task.o(.text)
    sys_print_sys_nv                         0x0001301b   Thumb Code    36  system_task.o(.text)
    sys_runtime_parameter_init               0x0001303f   Thumb Code    46  system_task.o(.text)
    _get_sub_lp_freq_index                   0x0001306d   Thumb Code    62  system_task.o(.text)
    sys_sub_eq_set                           0x00013221   Thumb Code    86  system_task.o(.text)
    _get_sub_hp_freq_index                   0x000133c9   Thumb Code    40  system_task.o(.text)
    sys_poll_handler                         0x000139bf   Thumb Code    72  system_task.o(.text)
    sys_audio_config_load                    0x00013aa1   Thumb Code    38  system_task.o(.text)
    audio_invalid_timeout                    0x00013b09   Thumb Code    88  system_task.o(.text)
    trigger_invalid_timeout                  0x00013c45   Thumb Code   742  system_task.o(.text)
    protect_recover_later                    0x00014039   Thumb Code   252  system_task.o(.text)
    .text                                    0x00014668   Section        0  display_task.o(.text)
    menu_list_add_next                       0x00014669   Thumb Code   110  display_task.o(.text)
    menu_list_add_child_and_next             0x000146d7   Thumb Code   100  display_task.o(.text)
    dis_print                                0x000147c5   Thumb Code   158  display_task.o(.text)
    dis_print_buf                            0x00014863   Thumb Code    44  display_task.o(.text)
    dis_clean                                0x0001488f   Thumb Code     2  display_task.o(.text)
    dis_welcome_menu                         0x00014891   Thumb Code    54  display_task.o(.text)
    dis_volume_menu                          0x000148c7   Thumb Code   198  display_task.o(.text)
    dis_source_menu                          0x0001498d   Thumb Code    90  display_task.o(.text)
    dis_preset_menu                          0x000149e7   Thumb Code   482  display_task.o(.text)
    dis_brightless_menu                      0x00014bc9   Thumb Code    94  display_task.o(.text)
    dis_menu_flash                           0x00014c27   Thumb Code   124  display_task.o(.text)
    dis_install_menu                         0x00014ca3   Thumb Code   148  display_task.o(.text)
    dis_ip_address_menu                      0x00014d37   Thumb Code   122  display_task.o(.text)
    dis_sub_model_menu                       0x00014de5   Thumb Code    34  display_task.o(.text)
    dis_input_gain_menu                      0x00014e07   Thumb Code   156  display_task.o(.text)
    dis_phrase_menu                          0x00014ea3   Thumb Code    50  display_task.o(.text)
    dis_sub_lowpass_menu                     0x00014ed5   Thumb Code  1010  display_task.o(.text)
    dis_sub_highpass_menu                    0x000152c7   Thumb Code   294  display_task.o(.text)
    dis_lineout_highpass_menu                0x000153ed   Thumb Code   208  display_task.o(.text)
    dis_delay_router_menu                    0x000154bd   Thumb Code   100  display_task.o(.text)
    dis_power_on_method_menu                 0x00015521   Thumb Code    96  display_task.o(.text)
    dis_reset_menu                           0x00015581   Thumb Code    44  display_task.o(.text)
    dis_delay_time_menu                      0x000155ad   Thumb Code   940  display_task.o(.text)
    dis_sense_threshold_menu                 0x00015959   Thumb Code   100  display_task.o(.text)
    dis_sense_off_menu                       0x000159bd   Thumb Code    76  display_task.o(.text)
    dis_reset_confirm_menu                   0x00015a09   Thumb Code    46  display_task.o(.text)
    dis_factory_sub_select_menu              0x00015a37   Thumb Code    38  display_task.o(.text)
    dis_factory_sub_confirm_menu             0x00015a5d   Thumb Code    36  display_task.o(.text)
    dis_peq_state_menu                       0x00015a81   Thumb Code    42  display_task.o(.text)
    dis_protect_menu                         0x00015aab   Thumb Code   188  display_task.o(.text)
    dis_version_menu                         0x00015b67   Thumb Code    28  display_task.o(.text)
    welcome_dis_timeout_handler              0x00015b83   Thumb Code    46  display_task.o(.text)
    display_welcome_handler                  0x00015bb1   Thumb Code    54  display_task.o(.text)
    display_handler                          0x00015be7   Thumb Code   868  display_task.o(.text)
    .text                                    0x00016140   Section        0  lcd_driver.o(.text)
    lcd_check_busy                           0x00016141   Thumb Code   186  lcd_driver.o(.text)
    lcd_bus_write                            0x000161fb   Thumb Code    82  lcd_driver.o(.text)
    .text                                    0x00016510   Section        0  eprom_driver.o(.text)
    .text                                    0x00016728   Section        0  ir_driver.o(.text)
    .text                                    0x00016d28   Section        0  njw1195_driver.o(.text)
    njw1195_delay                            0x00016d29   Thumb Code    14  njw1195_driver.o(.text)
    njw1195_write                            0x00016d37   Thumb Code   228  njw1195_driver.o(.text)
    .text                                    0x00016fc4   Section        0  cs4251x.o(.text)
    .text                                    0x000171e0   Section        0  cs485xx.o(.text)
    .text                                    0x00017868   Section        0  sw_spi.o(.text)
    SPICLK2                                  0x00017877   Thumb Code    34  sw_spi.o(.text)
    SPIDO2                                   0x00017899   Thumb Code    34  sw_spi.o(.text)
    SPIDI2                                   0x000178bb   Thumb Code    12  sw_spi.o(.text)
    .text                                    0x00017978   Section        0  enet_fs.o(.text)
    .text                                    0x00017aec   Section        0  lwiplib.o(.text)
    err_tcp                                  0x00017d05   Thumb Code   208  lwiplib.o(.text)
    plug_holes                               0x00017df1   Thumb Code   124  lwiplib.o(.text)
    tcp_output_segment                       0x000182c1   Thumb Code   222  lwiplib.o(.text)
    pbuf_free_ooseq                          0x00018603   Thumb Code    56  lwiplib.o(.text)
    pbuf_free_ooseq_callback                 0x0001863b   Thumb Code    10  lwiplib.o(.text)
    pbuf_pool_is_empty                       0x0001869f   Thumb Code    62  lwiplib.o(.text)
    tcp_output_alloc_header                  0x00018885   Thumb Code   156  lwiplib.o(.text)
    tcp_create_segment                       0x00018b6b   Thumb Code   200  lwiplib.o(.text)
    tcp_pbuf_prealloc                        0x00018c45   Thumb Code   120  lwiplib.o(.text)
    tcp_write_checks                         0x00018cbd   Thumb Code   144  lwiplib.o(.text)
    do_writemore                             0x00019139   Thumb Code   368  lwiplib.o(.text)
    sent_tcp                                 0x000192a9   Thumb Code   108  lwiplib.o(.text)
    tcpip_tcp_timer                          0x00019ed7   Thumb Code    40  lwiplib.o(.text)
    tcp_close_shutdown                       0x00019f25   Thumb Code   430  lwiplib.o(.text)
    do_close_internal                        0x0001a143   Thumb Code   350  lwiplib.o(.text)
    poll_tcp                                 0x0001a2a1   Thumb Code   110  lwiplib.o(.text)
    recv_tcp                                 0x0001a30f   Thumb Code   144  lwiplib.o(.text)
    setup_tcp                                0x0001a39f   Thumb Code    50  lwiplib.o(.text)
    tcp_kill_prio                            0x0001a489   Thumb Code    80  lwiplib.o(.text)
    tcp_kill_timewait                        0x0001a4d9   Thumb Code    54  lwiplib.o(.text)
    recv_udp                                 0x0001a623   Thumb Code   186  lwiplib.o(.text)
    recv_raw                                 0x0001a7c7   Thumb Code   154  lwiplib.o(.text)
    pcb_new                                  0x0001a895   Thumb Code   148  lwiplib.o(.text)
    netconn_drain                            0x0001acb1   Thumb Code   180  lwiplib.o(.text)
    tcp_new_port                             0x0001af77   Thumb Code    96  lwiplib.o(.text)
    udp_new_port                             0x0001b07b   Thumb Code    80  lwiplib.o(.text)
    do_connected                             0x0001b233   Thumb Code   154  lwiplib.o(.text)
    accept_function                          0x0001b64d   Thumb Code   182  lwiplib.o(.text)
    tcp_accept_null                          0x0001b703   Thumb Code     8  lwiplib.o(.text)
    netconn_recv_data                        0x0001ba8d   Thumb Code   288  lwiplib.o(.text)
    netconn_close_shutdown                   0x0001c1d9   Thumb Code    74  lwiplib.o(.text)
    igmp_remove_group                        0x0001c255   Thumb Code    68  lwiplib.o(.text)
    igmp_ip_output_if                        0x0001c299   Thumb Code    74  lwiplib.o(.text)
    lwip_standard_chksum                     0x0001c2e3   Thumb Code    94  lwiplib.o(.text)
    igmp_send                                0x0001c355   Thumb Code   146  lwiplib.o(.text)
    igmp_start_timer                         0x0001c4e9   Thumb Code    30  lwiplib.o(.text)
    igmp_lookup_group                        0x0001c507   Thumb Code    84  lwiplib.o(.text)
    icmp_send_response                       0x0001c8d1   Thumb Code   150  lwiplib.o(.text)
    igmp_delaying_member                     0x0001c9c7   Thumb Code    42  lwiplib.o(.text)
    tcp_oos_insert_segment                   0x0001d04f   Thumb Code   138  lwiplib.o(.text)
    tcp_receive                              0x0001d1a7   Thumb Code  2648  lwiplib.o(.text)
    tcp_parseopt                             0x0001dbff   Thumb Code   200  lwiplib.o(.text)
    tcp_process                              0x0001dcc7   Thumb Code  1414  lwiplib.o(.text)
    tcp_listen_input                         0x0001e24d   Thumb Code   318  lwiplib.o(.text)
    tcp_timewait_input                       0x0001e38b   Thumb Code   192  lwiplib.o(.text)
    dhcp_delete_msg                          0x0001eeed   Thumb Code    40  lwiplib.o(.text)
    dhcp_option_trailer                      0x0001ef15   Thumb Code    70  lwiplib.o(.text)
    dhcp_option_long                         0x0001ef5b   Thumb Code    66  lwiplib.o(.text)
    dhcp_option                              0x0001ef9d   Thumb Code    32  lwiplib.o(.text)
    dhcp_option_byte                         0x0001efbd   Thumb Code    18  lwiplib.o(.text)
    dhcp_create_msg                          0x0001efcf   Thumb Code   356  lwiplib.o(.text)
    dhcp_set_state                           0x0001f133   Thumb Code    16  lwiplib.o(.text)
    dhcp_decline                             0x0001f143   Thumb Code   142  lwiplib.o(.text)
    etharp_send_ip                           0x0001f20b   Thumb Code    60  lwiplib.o(.text)
    etharp_free_entry                        0x0001f247   Thumb Code   112  lwiplib.o(.text)
    etharp_find_entry                        0x0001f2b7   Thumb Code   374  lwiplib.o(.text)
    etharp_update_arp_entry                  0x0001f42d   Thumb Code   208  lwiplib.o(.text)
    autoip_start_probing                     0x0001f4fd   Thumb Code    84  lwiplib.o(.text)
    autoip_create_addr                       0x0001f551   Thumb Code    86  lwiplib.o(.text)
    autoip_restart                           0x0001f66f   Thumb Code    22  lwiplib.o(.text)
    autoip_arp_announce                      0x0001f769   Thumb Code    36  lwiplib.o(.text)
    autoip_handle_arp_conflict               0x0001f78d   Thumb Code    58  lwiplib.o(.text)
    etharp_arp_input                         0x0001f861   Thumb Code   440  lwiplib.o(.text)
    tcpip_thread                             0x0001fb7f   Thumb Code   214  lwiplib.o(.text)
    sys_arch_thread                          0x0001fd5f   Thumb Code   102  lwiplib.o(.text)
    igmp_timeout                             0x0001fe8b   Thumb Code    48  lwiplib.o(.text)
    igmp_timer                               0x0001fee1   Thumb Code    24  lwiplib.o(.text)
    autoip_bind                              0x00020033   Thumb Code    54  lwiplib.o(.text)
    autoip_arp_probe                         0x00020069   Thumb Code    38  lwiplib.o(.text)
    autoip_timer                             0x000201db   Thumb Code    24  lwiplib.o(.text)
    dhcp_option_short                        0x000201f3   Thumb Code    34  lwiplib.o(.text)
    dhcp_discover                            0x00020215   Thumb Code   242  lwiplib.o(.text)
    dhcp_reboot                              0x00020307   Thumb Code   180  lwiplib.o(.text)
    dhcp_rebind                              0x0002046d   Thumb Code   148  lwiplib.o(.text)
    dhcp_bind                                0x000205ab   Thumb Code   290  lwiplib.o(.text)
    dhcp_check                               0x0002084f   Thumb Code    70  lwiplib.o(.text)
    dhcp_select                              0x00020895   Thumb Code   256  lwiplib.o(.text)
    dhcp_timeout                             0x00020995   Thumb Code   196  lwiplib.o(.text)
    dhcp_timer_fine                          0x00020a9d   Thumb Code    26  lwiplib.o(.text)
    dhcp_t1_timeout                          0x00020ab7   Thumb Code    40  lwiplib.o(.text)
    dhcp_t2_timeout                          0x00020adf   Thumb Code    66  lwiplib.o(.text)
    dhcp_timer_coarse                        0x00020b6b   Thumb Code    26  lwiplib.o(.text)
    arp_timer                                0x00020c15   Thumb Code    26  lwiplib.o(.text)
    pbuf_free_int                            0x00020e51   Thumb Code    14  lwiplib.o(.text)
    dhcp_handle_nak                          0x00020e7f   Thumb Code    56  lwiplib.o(.text)
    dhcp_handle_offer                        0x00020eb7   Thumb Code    54  lwiplib.o(.text)
    dhcp_handle_ack                          0x00020eed   Thumb Code   270  lwiplib.o(.text)
    dhcp_parse_reply                         0x0002107f   Thumb Code   806  lwiplib.o(.text)
    dhcp_recv                                0x000213a5   Thumb Code   298  lwiplib.o(.text)
    etharp_output_to_arp_index               0x0002206f   Thumb Code   104  lwiplib.o(.text)
    tivaif_hwinit                            0x00022383   Thumb Code   230  lwiplib.o(.text)
    tivaif_check_pbuf                        0x00022469   Thumb Code    80  lwiplib.o(.text)
    tivaif_transmit                          0x000224b9   Thumb Code   348  lwiplib.o(.text)
    tivaif_process_transmit                  0x00022615   Thumb Code   136  lwiplib.o(.text)
    tivaif_receive                           0x0002269d   Thumb Code   542  lwiplib.o(.text)
    lwIPInterruptTask                        0x000229cf   Thumb Code    42  lwiplib.o(.text)
    lwIPLinkDetect                           0x000229f9   Thumb Code   130  lwiplib.o(.text)
    lwIPPrivateHostTimer                     0x00022a7b   Thumb Code    20  lwiplib.o(.text)
    lwIPPrivateLinkTimer                     0x00022a8f   Thumb Code    20  lwiplib.o(.text)
    lwIPPrivateInit                          0x00022b61   Thumb Code   180  lwiplib.o(.text)
    lwIPPrivateNetworkConfigChange           0x00022e19   Thumb Code   240  lwiplib.o(.text)
    .text                                    0x00022f80   Section        0  web.o(.text)
    json_output_print                        0x00022f81   Thumb Code    96  web.o(.text)
    _cgi_agr_parse                           0x00022fe1   Thumb Code    60  web.o(.text)
    http_cgi_handler                         0x0002301d   Thumb Code    90  web.o(.text)
    http_state_alloc                         0x00023077   Thumb Code    42  web.o(.text)
    http_state_free                          0x000230a1   Thumb Code    28  web.o(.text)
    do_httpd_send                            0x000230bd   Thumb Code    62  web.o(.text)
    http_send_data                           0x000230fb   Thumb Code   186  web.o(.text)
    get_http_headers                         0x000231b5   Thumb Code   230  web.o(.text)
    http_init_file                           0x0002329b   Thumb Code    30  web.o(.text)
    http_find_file                           0x000232b9   Thumb Code   116  web.o(.text)
    do_process                               0x00023513   Thumb Code    68  web.o(.text)
    httpd_process                            0x00023557   Thumb Code   122  web.o(.text)
    web_server                               0x000235d1   Thumb Code   116  web.o(.text)
    phase_adj_handler                        0x00023709   Thumb Code    44  web.o(.text)
    delay_switch_handler                     0x00023735   Thumb Code    60  web.o(.text)
    delay_time_change_handler                0x00023771   Thumb Code    66  web.o(.text)
    lineout_slope_select_handler             0x000237b3   Thumb Code    34  web.o(.text)
    lineout_hp_change_handler                0x000237d5   Thumb Code    36  web.o(.text)
    input_gain_change_handler                0x000237f9   Thumb Code    86  web.o(.text)
    sub_hp_slope_select                      0x0002384f   Thumb Code    44  web.o(.text)
    sub_hp_change_handler                    0x0002387b   Thumb Code   200  web.o(.text)
    sub_lp_slope_select_handler              0x00023943   Thumb Code    44  web.o(.text)
    sub_lp_change_handler                    0x0002396f   Thumb Code    48  web.o(.text)
    do_setup_cgi_page                        0x0002399f   Thumb Code   296  web.o(.text)
    _load_setup_page_json_file               0x00023ac7   Thumb Code   352  web.o(.text)
    Cgi_setup_page_handler                   0x00023c27   Thumb Code    50  web.o(.text)
    mute_state_control                       0x00023c59   Thumb Code    46  web.o(.text)
    sense_timeout_select_handler             0x00023c87   Thumb Code    54  web.o(.text)
    sense_level_select_handler               0x00023cbd   Thumb Code    64  web.o(.text)
    power_on_method_select                   0x00023cfd   Thumb Code    70  web.o(.text)
    src_select_handler                       0x00023d43   Thumb Code    46  web.o(.text)
    preset_selcet_handler                    0x00023d71   Thumb Code   672  web.o(.text)
    master_volume_control                    0x00024011   Thumb Code    90  web.o(.text)
    sub_select_handler                       0x0002406b   Thumb Code    46  web.o(.text)
    do_home_cgi_page                         0x00024099   Thumb Code   230  web.o(.text)
    _load_home_page_json_file                0x0002417f   Thumb Code   256  web.o(.text)
    Cgi_home_page_handler                    0x0002427f   Thumb Code    46  web.o(.text)
    req_save_handler                         0x000242ad   Thumb Code   202  web.o(.text)
    req_on_off_control                       0x00024377   Thumb Code    46  web.o(.text)
    req_filter_select_handler                0x000243a5   Thumb Code    84  web.o(.text)
    req_preset_select_handler                0x000243f9   Thumb Code    42  web.o(.text)
    temp_width_adj_handler                   0x00024423   Thumb Code    28  web.o(.text)
    temp_freq_adj_handler                    0x0002443f   Thumb Code    30  web.o(.text)
    temp_gain_adj_handler                    0x0002445d   Thumb Code    30  web.o(.text)
    do_roomeq_cgi_page                       0x0002447b   Thumb Code   618  web.o(.text)
    _load_roomeq_page_json_file              0x000246e5   Thumb Code   250  web.o(.text)
    Cgi_roomeq_page_handler                  0x000247df   Thumb Code    46  web.o(.text)
    _load_preset_page_json_file              0x0002480d   Thumb Code   304  web.o(.text)
    preset_customer_eq_select_handler        0x0002493d   Thumb Code    22  web.o(.text)
    preset_width2_change_handler             0x00024953   Thumb Code   598  web.o(.text)
    preset_freq2_change_handler              0x00024ba9   Thumb Code   186  web.o(.text)
    preset_gain2_change_handler              0x00024c63   Thumb Code   186  web.o(.text)
    preset_width1_change_handler             0x00024d1d   Thumb Code   184  web.o(.text)
    preset_freq1_change_handler              0x00024dd5   Thumb Code   184  web.o(.text)
    preset_gain1_change_handler              0x00024e8d   Thumb Code   186  web.o(.text)
    preset_vol_change_handler                0x00024f47   Thumb Code   138  web.o(.text)
    do_preset_cgi_page                       0x00024fd1   Thumb Code   312  web.o(.text)
    Cgi_preset_page_handler                  0x00025109   Thumb Code    44  web.o(.text)
    _load_ipconfig_page_json_file            0x00025135   Thumb Code   236  web.o(.text)
    do_ipconfig_cgi_page                     0x00025221   Thumb Code   244  web.o(.text)
    _load_about_page_json_file               0x00025315   Thumb Code   110  web.o(.text)
    Cgi_about_page_handler                   0x00025383   Thumb Code    26  web.o(.text)
    do_config_cgi_page                       0x0002539d   Thumb Code   694  web.o(.text)
    _load_config_page_json_file              0x00025653   Thumb Code   118  web.o(.text)
    Cgi_config_handler                       0x000256c9   Thumb Code    46  web.o(.text)
    Cgi_ipconfig_page_handler                0x000256f7   Thumb Code    46  web.o(.text)
    .text                                    0x0002578c   Section        0  ff.o(.text)
    mem_cpy                                  0x0002578d   Thumb Code    26  ff.o(.text)
    mem_set                                  0x000257a7   Thumb Code    20  ff.o(.text)
    mem_cmp                                  0x000257bb   Thumb Code    38  ff.o(.text)
    chk_chr                                  0x000257e1   Thumb Code    20  ff.o(.text)
    sync_window                              0x000257f5   Thumb Code    82  ff.o(.text)
    move_window                              0x00025847   Thumb Code    50  ff.o(.text)
    sync_fs                                  0x00025879   Thumb Code   200  ff.o(.text)
    remove_chain                             0x00025b79   Thumb Code   104  ff.o(.text)
    create_chain                             0x00025be1   Thumb Code   202  ff.o(.text)
    dir_sdi                                  0x00025cab   Thumb Code   156  ff.o(.text)
    dir_next                                 0x00025d47   Thumb Code   272  ff.o(.text)
    dir_alloc                                0x00025e57   Thumb Code    86  ff.o(.text)
    ld_clust                                 0x00025ead   Thumb Code    32  ff.o(.text)
    st_clust                                 0x00025ecd   Thumb Code    16  ff.o(.text)
    dir_find                                 0x00025edd   Thumb Code    92  ff.o(.text)
    dir_read                                 0x00025f39   Thumb Code   110  ff.o(.text)
    dir_register                             0x00025fa7   Thumb Code    58  ff.o(.text)
    dir_remove                               0x00025fe1   Thumb Code    44  ff.o(.text)
    create_name                              0x0002600d   Thumb Code   336  ff.o(.text)
    get_fileinfo                             0x0002615d   Thumb Code   152  ff.o(.text)
    follow_path                              0x000261f5   Thumb Code   146  ff.o(.text)
    check_fs                                 0x00026287   Thumb Code   138  ff.o(.text)
    chk_mounted                              0x00026311   Thumb Code   936  ff.o(.text)
    validate                                 0x000266b9   Thumb Code    54  ff.o(.text)
    .text                                    0x0002752c   Section        0  mmc-dk-tm4c129x.o(.text)
    SELECT                                   0x0002752d   Thumb Code    20  mmc-dk-tm4c129x.o(.text)
    DESELECT                                 0x00027541   Thumb Code    20  mmc-dk-tm4c129x.o(.text)
    xmit_spi                                 0x00027555   Thumb Code    34  mmc-dk-tm4c129x.o(.text)
    rcvr_spi                                 0x00027577   Thumb Code    36  mmc-dk-tm4c129x.o(.text)
    rcvr_spi_m                               0x0002759b   Thumb Code    12  mmc-dk-tm4c129x.o(.text)
    wait_ready                               0x000275a7   Thumb Code    36  mmc-dk-tm4c129x.o(.text)
    send_initial_clock_train                 0x000275cb   Thumb Code    90  mmc-dk-tm4c129x.o(.text)
    power_on                                 0x00027625   Thumb Code   232  mmc-dk-tm4c129x.o(.text)
    set_max_speed                            0x0002770d   Thumb Code    66  mmc-dk-tm4c129x.o(.text)
    power_off                                0x0002774f   Thumb Code     8  mmc-dk-tm4c129x.o(.text)
    chk_power                                0x00027757   Thumb Code     6  mmc-dk-tm4c129x.o(.text)
    rcvr_datablock                           0x0002775d   Thumb Code    76  mmc-dk-tm4c129x.o(.text)
    xmit_datablock                           0x000277a9   Thumb Code    94  mmc-dk-tm4c129x.o(.text)
    send_cmd                                 0x00027807   Thumb Code   112  mmc-dk-tm4c129x.o(.text)
    send_cmd12                               0x00027877   Thumb Code    66  mmc-dk-tm4c129x.o(.text)
    .text                                    0x00027d84   Section        0  netconf.o(.text)
    .text                                    0x00027e9c   Section       16  rt_ctype_table.o(.text)
    .text                                    0x00027eac   Section        0  vsprintf.o(.text)
    .text                                    0x00027ed0   Section        0  _printf_pad.o(.text)
    .text                                    0x00027f22   Section        0  _printf_truncate.o(.text)
    .text                                    0x00027f46   Section        0  _printf_str.o(.text)
    .text                                    0x00027f98   Section        0  _printf_dec.o(.text)
    .text                                    0x00028010   Section        0  _printf_charcount.o(.text)
    .text                                    0x0002803c   Section        0  _printf_wctomb.o(.text)
    .text                                    0x000280f8   Section        0  _printf_oct_int_ll.o(.text)
    _printf_longlong_oct_internal            0x000280f9   Thumb Code     0  _printf_oct_int_ll.o(.text)
    .text                                    0x00028170   Section        0  _printf_hex_int_ll_ptr.o(.text)
    _printf_hex_common                       0x00028171   Thumb Code     0  _printf_hex_int_ll_ptr.o(.text)
    .text                                    0x0002820c   Section        0  __printf_flags_ss_wp.o(.text)
    .text                                    0x00028398   Section        0  __0sscanf.o(.text)
    .text                                    0x000283d4   Section        0  _scanf_int.o(.text)
    .text                                    0x00028524   Section        0  atoi.o(.text)
    .text                                    0x00028540   Section        0  rand.o(.text)
    .text                                    0x0002857c   Section        0  strtok.o(.text)
    .text                                    0x00028588   Section        0  strchr.o(.text)
    .text                                    0x0002859c   Section        0  strstr.o(.text)
    .text                                    0x000285c0   Section        0  memcmp.o(.text)
    .text                                    0x00028618   Section        0  strlen.o(.text)
    .text                                    0x00028656   Section        0  strncmp.o(.text)
    .text                                    0x000286ec   Section        0  strcat.o(.text)
    .text                                    0x00028704   Section      138  rt_memcpy_v6.o(.text)
    .text                                    0x0002878e   Section      100  rt_memcpy_w.o(.text)
    .text                                    0x000287f2   Section       16  aeabi_memset.o(.text)
    .text                                    0x00028802   Section       68  rt_memclr.o(.text)
    .text                                    0x00028846   Section       78  rt_memclr_w.o(.text)
    .text                                    0x00028894   Section      128  strcmpv7m.o(.text)
    .text                                    0x00028914   Section        0  heapauxi.o(.text)
    .text                                    0x0002891c   Section        8  rt_locale_intlibspace.o(.text)
    .text                                    0x00028924   Section        8  rt_errno_addr_intlibspace.o(.text)
    .text                                    0x0002892c   Section        0  _printf_intcommon.o(.text)
    .text                                    0x000289e4   Section        0  _printf_char_common.o(.text)
    _printf_input_char                       0x000289e5   Thumb Code    10  _printf_char_common.o(.text)
    .text                                    0x00028a14   Section        0  _sputc.o(.text)
    .text                                    0x00028a1e   Section        0  _printf_char.o(.text)
    .text                                    0x00028a4a   Section        0  _printf_wchar.o(.text)
    .text                                    0x00028a78   Section        0  _printf_longlong_dec.o(.text)
    .text                                    0x00028af0   Section        0  _chval.o(.text)
    .text                                    0x00028b0c   Section        0  scanf_char.o(.text)
    _scanf_char_input                        0x00028b0d   Thumb Code    12  scanf_char.o(.text)
    .text                                    0x00028b38   Section        0  _sgetc.o(.text)
    .text                                    0x00028b78   Section        0  strtol.o(.text)
    .text                                    0x00028be8   Section        0  _wcrtomb.o(.text)
    .text                                    0x00028c28   Section        0  strtok_int.o(.text)
    .text                                    0x00028c6c   Section        8  libspace.o(.text)
    .text                                    0x00028c74   Section      138  lludiv10.o(.text)
    .text                                    0x00028cfe   Section        0  isspace.o(.text)
    .text                                    0x00028d10   Section        0  _printf_fp_dec.o(.text)
    _fp_digits                               0x00028d13   Thumb Code   426  _printf_fp_dec.o(.text)
    .text                                    0x00029130   Section        0  _printf_fp_hex.o(.text)
    .text                                    0x00029430   Section        0  _scanf.o(.text)
    .text                                    0x000297a0   Section        0  _strtoul.o(.text)
    .text                                    0x0002983e   Section        0  strcspn.o(.text)
    .text                                    0x0002985e   Section        0  strspn.o(.text)
    .text                                    0x0002987a   Section       74  sys_stackheap_outer.o(.text)
    .text                                    0x000298c4   Section        0  _printf_fp_infnan.o(.text)
    .text                                    0x00029944   Section        0  bigflt0.o(.text)
    .text                                    0x00029a28   Section        0  exit.o(.text)
    .text                                    0x00029a34   Section        2  use_no_semi.o(.text)
    .text                                    0x00029a36   Section        0  indicate_semi.o(.text)
    .text                                    0x00029a38   Section        0  sys_exit.o(.text)
    CL$$btod_d2e                             0x00029a44   Section       62  btod.o(CL$$btod_d2e)
    CL$$btod_d2e_denorm_low                  0x00029a82   Section       70  btod.o(CL$$btod_d2e_denorm_low)
    CL$$btod_d2e_norm_op1                    0x00029ac8   Section       96  btod.o(CL$$btod_d2e_norm_op1)
    CL$$btod_div_common                      0x00029b28   Section      824  btod.o(CL$$btod_div_common)
    CL$$btod_e2e                             0x00029e60   Section      198  btod.o(CL$$btod_e2e)
    CL$$btod_ediv                            0x00029f26   Section       40  btod.o(CL$$btod_ediv)
    CL$$btod_emul                            0x00029f4e   Section       40  btod.o(CL$$btod_emul)
    CL$$btod_mult_common                     0x00029f76   Section      580  btod.o(CL$$btod_mult_common)
    i.EMACAddrGet                            0x0002a1ba   Section        0  emac.o(i.EMACAddrGet)
    i.EMACAddrSet                            0x0002a1d8   Section        0  emac.o(i.EMACAddrSet)
    i.EMACConfigGet                          0x0002a1fc   Section        0  emac.o(i.EMACConfigGet)
    i.EMACConfigSet                          0x0002a240   Section        0  emac.o(i.EMACConfigSet)
    i.EMACFrameFilterSet                     0x0002a278   Section        0  emac.o(i.EMACFrameFilterSet)
    i.EMACInit                               0x0002a288   Section        0  emac.o(i.EMACInit)
    i.EMACIntClear                           0x0002a310   Section        0  emac.o(i.EMACIntClear)
    i.EMACIntDisable                         0x0002a34e   Section        0  emac.o(i.EMACIntDisable)
    i.EMACIntEnable                          0x0002a38c   Section        0  emac.o(i.EMACIntEnable)
    i.EMACIntStatus                          0x0002a3d2   Section        0  emac.o(i.EMACIntStatus)
    i.EMACPHYConfigSet                       0x0002a400   Section        0  emac.o(i.EMACPHYConfigSet)
    i.EMACPHYRead                            0x0002a488   Section        0  emac.o(i.EMACPHYRead)
    i.EMACPHYWrite                           0x0002a4b2   Section        0  emac.o(i.EMACPHYWrite)
    i.EMACRxDMADescriptorListSet             0x0002a4dc   Section        0  emac.o(i.EMACRxDMADescriptorListSet)
    i.EMACRxEnable                           0x0002a4e2   Section        0  emac.o(i.EMACRxEnable)
    i.EMACTimestampIntStatus                 0x0002a4f8   Section        0  emac.o(i.EMACTimestampIntStatus)
    i.EMACTxDMADescriptorListSet             0x0002a4fe   Section        0  emac.o(i.EMACTxDMADescriptorListSet)
    i.EMACTxDMAPollDemand                    0x0002a504   Section        0  emac.o(i.EMACTxDMAPollDemand)
    i.EMACTxEnable                           0x0002a50c   Section        0  emac.o(i.EMACTxEnable)
    i.GPIODirModeSet                         0x0002a522   Section        0  gpio.o(i.GPIODirModeSet)
    i.GPIOIntClear                           0x0002a54a   Section        0  gpio.o(i.GPIOIntClear)
    i.GPIOIntEnable                          0x0002a550   Section        0  gpio.o(i.GPIOIntEnable)
    i.GPIOIntStatus                          0x0002a55e   Section        0  gpio.o(i.GPIOIntStatus)
    i.GPIOIntTypeSet                         0x0002a56c   Section        0  gpio.o(i.GPIOIntTypeSet)
    i.GPIOPadConfigSet                       0x0002a5bc   Section        0  gpio.o(i.GPIOPadConfigSet)
    i.GPIOPinConfigure                       0x0002a6fc   Section        0  gpio.o(i.GPIOPinConfigure)
    i.GPIOPinRead                            0x0002a744   Section        0  gpio.o(i.GPIOPinRead)
    i.GPIOPinTypeEthernetLED                 0x0002a74a   Section        0  gpio.o(i.GPIOPinTypeEthernetLED)
    i.GPIOPinTypeGPIOInput                   0x0002a766   Section        0  gpio.o(i.GPIOPinTypeGPIOInput)
    i.GPIOPinTypeGPIOOutput                  0x0002a782   Section        0  gpio.o(i.GPIOPinTypeGPIOOutput)
    i.GPIOPinTypePWM                         0x0002a79e   Section        0  gpio.o(i.GPIOPinTypePWM)
    i.GPIOPinTypeUART                        0x0002a7ba   Section        0  gpio.o(i.GPIOPinTypeUART)
    i.GPIOPinWrite                           0x0002a7d6   Section        0  gpio.o(i.GPIOPinWrite)
    i.IntDisable                             0x0002a7dc   Section        0  interrupt.o(i.IntDisable)
    i.IntEnable                              0x0002a840   Section        0  interrupt.o(i.IntEnable)
    i.IntMasterEnable                        0x0002a8a4   Section        0  interrupt.o(i.IntMasterEnable)
    i.IntPrioritySet                         0x0002a8b4   Section        0  interrupt.o(i.IntPrioritySet)
    i.PWMClockSet                            0x0002a8dc   Section        0  pwm.o(i.PWMClockSet)
    i.PWMGenConfigure                        0x0002a8f2   Section        0  pwm.o(i.PWMGenConfigure)
    i.PWMGenEnable                           0x0002a918   Section        0  pwm.o(i.PWMGenEnable)
    i.PWMGenPeriodGet                        0x0002a922   Section        0  pwm.o(i.PWMGenPeriodGet)
    i.PWMGenPeriodSet                        0x0002a934   Section        0  pwm.o(i.PWMGenPeriodSet)
    i.PWMOutputState                         0x0002a946   Section        0  pwm.o(i.PWMOutputState)
    i.PWMPulseWidthSet                       0x0002a956   Section        0  pwm.o(i.PWMPulseWidthSet)
    i.SysCtlClockFreqSet                     0x0002a978   Section        0  sysctl.o(i.SysCtlClockFreqSet)
    i.SysCtlDeepSleep                        0x0002ac40   Section        0  sysctl.o(i.SysCtlDeepSleep)
    i.SysCtlPeripheralEnable                 0x0002ac60   Section        0  sysctl.o(i.SysCtlPeripheralEnable)
    i.SysCtlPeripheralPresent                0x0002ac88   Section        0  sysctl.o(i.SysCtlPeripheralPresent)
    i.SysCtlPeripheralReady                  0x0002acb4   Section        0  sysctl.o(i.SysCtlPeripheralReady)
    i.SysCtlPeripheralReset                  0x0002ace0   Section        0  sysctl.o(i.SysCtlPeripheralReset)
    i.TimerConfigure                         0x0002ad1c   Section        0  timer.o(i.TimerConfigure)
    i.TimerEnable                            0x0002ad7c   Section        0  timer.o(i.TimerEnable)
    i.TimerIntClear                          0x0002ad8a   Section        0  timer.o(i.TimerIntClear)
    i.TimerIntEnable                         0x0002ad8e   Section        0  timer.o(i.TimerIntEnable)
    i.TimerLoadSet                           0x0002ad96   Section        0  timer.o(i.TimerLoadSet)
    i.TimerValueGet                          0x0002ada8   Section        0  timer.o(i.TimerValueGet)
    i.UARTCharGetNonBlocking                 0x0002adb2   Section        0  uart.o(i.UARTCharGetNonBlocking)
    i.UARTCharPutNonBlocking                 0x0002adc2   Section        0  uart.o(i.UARTCharPutNonBlocking)
    i.UARTCharsAvail                         0x0002add2   Section        0  uart.o(i.UARTCharsAvail)
    i.UARTConfigSetExpClk                    0x0002addc   Section        0  uart.o(i.UARTConfigSetExpClk)
    i.UARTEnable                             0x0002ae4a   Section        0  uart.o(i.UARTEnable)
    i.UARTIntClear                           0x0002ae5e   Section        0  uart.o(i.UARTIntClear)
    i.UARTIntEnable                          0x0002ae62   Section        0  uart.o(i.UARTIntEnable)
    i.UARTIntStatus                          0x0002ae6a   Section        0  uart.o(i.UARTIntStatus)
    i.WatchdogEnable                         0x0002ae74   Section        0  watchdog.o(i.WatchdogEnable)
    i.WatchdogReloadSet                      0x0002ae7e   Section        0  watchdog.o(i.WatchdogReloadSet)
    i.WatchdogResetEnable                    0x0002ae82   Section        0  watchdog.o(i.WatchdogResetEnable)
    i.__ARM_fpclassify                       0x0002ae8c   Section        0  fpclassify.o(i.__ARM_fpclassify)
    i._is_digit                              0x0002aebc   Section        0  __printf_wp.o(i._is_digit)
    locale$$code                             0x0002aecc   Section       44  lc_ctype_c.o(locale$$code)
    locale$$code                             0x0002aef8   Section       44  lc_numeric_c.o(locale$$code)
    x$fpl$d2f                                0x0002af24   Section       98  d2f.o(x$fpl$d2f)
    $v0                                      0x0002af24   Number         0  d2f.o(x$fpl$d2f)
    x$fpl$ddiv                               0x0002af88   Section      688  ddiv.o(x$fpl$ddiv)
    $v0                                      0x0002af88   Number         0  ddiv.o(x$fpl$ddiv)
    ddiv_entry                               0x0002af8f   Thumb Code     0  ddiv.o(x$fpl$ddiv)
    x$fpl$dflt                               0x0002b238   Section       46  dflt_clz.o(x$fpl$dflt)
    $v0                                      0x0002b238   Number         0  dflt_clz.o(x$fpl$dflt)
    x$fpl$dfltu                              0x0002b266   Section       38  dflt_clz.o(x$fpl$dfltu)
    $v0                                      0x0002b266   Number         0  dflt_clz.o(x$fpl$dfltu)
    x$fpl$dnaninf                            0x0002b28c   Section      156  dnaninf.o(x$fpl$dnaninf)
    $v0                                      0x0002b28c   Number         0  dnaninf.o(x$fpl$dnaninf)
    x$fpl$dretinf                            0x0002b328   Section       12  dretinf.o(x$fpl$dretinf)
    $v0                                      0x0002b328   Number         0  dretinf.o(x$fpl$dretinf)
    x$fpl$f2d                                0x0002b334   Section       86  f2d.o(x$fpl$f2d)
    $v0                                      0x0002b334   Number         0  f2d.o(x$fpl$f2d)
    x$fpl$fnaninf                            0x0002b38a   Section      140  fnaninf.o(x$fpl$fnaninf)
    $v0                                      0x0002b38a   Number         0  fnaninf.o(x$fpl$fnaninf)
    x$fpl$fpinit                             0x0002b416   Section       10  fpinit.o(x$fpl$fpinit)
    $v0                                      0x0002b416   Number         0  fpinit.o(x$fpl$fpinit)
    x$fpl$fretinf                            0x0002b420   Section       10  fretinf.o(x$fpl$fretinf)
    $v0                                      0x0002b420   Number         0  fretinf.o(x$fpl$fretinf)
    x$fpl$printf1                            0x0002b42a   Section        4  printf1.o(x$fpl$printf1)
    $v0                                      0x0002b42a   Number         0  printf1.o(x$fpl$printf1)
    x$fpl$printf2                            0x0002b42e   Section        4  printf2.o(x$fpl$printf2)
    $v0                                      0x0002b42e   Number         0  printf2.o(x$fpl$printf2)
    .constdata                               0x0002b432   Section       20  tasks.o(.constdata)
    x$fpl$usenofp                            0x0002b432   Section        0  usenofp.o(x$fpl$usenofp)
    ucExpectedStackBytes                     0x0002b432   Data          20  tasks.o(.constdata)
    .constdata                               0x0002b446   Section       10  keyboard.o(.constdata)
    __FUNCTION__                             0x0002b446   Data          10  keyboard.o(.constdata)
    .constdata                               0x0002b450   Section       37  osal_soft_iic.o(.constdata)
    __FUNCTION__                             0x0002b450   Data          19  osal_soft_iic.o(.constdata)
    __FUNCTION__                             0x0002b463   Data          18  osal_soft_iic.o(.constdata)
    .constdata                               0x0002b478   Section     1024  osal_utility.o(.constdata)
    crc32_table                              0x0002b478   Data        1024  osal_utility.o(.constdata)
    .constdata                               0x0002b878   Section       72  osal_ringbuf.o(.constdata)
    __FUNCTION__                             0x0002b878   Data          18  osal_ringbuf.o(.constdata)
    __FUNCTION__                             0x0002b88a   Data          17  osal_ringbuf.o(.constdata)
    __FUNCTION__                             0x0002b89b   Data          21  osal_ringbuf.o(.constdata)
    __FUNCTION__                             0x0002b8b0   Data          16  osal_ringbuf.o(.constdata)
    .constdata                               0x0002b8c0   Section       20  osal_detect.o(.constdata)
    __FUNCTION__                             0x0002b8c0   Data          20  osal_detect.o(.constdata)
    .constdata                               0x0002b8d4   Section     6375  dsp_app.o(.constdata)
    __FUNCTION__                             0x0002d1a8   Data          19  dsp_app.o(.constdata)
    .constdata                               0x0002d1bc   Section     1455  system_task.o(.constdata)
    sub_eq_array_a                           0x0002d1bc   Data         416  system_task.o(.constdata)
    sub_eq_array_b                           0x0002d35c   Data         416  system_task.o(.constdata)
    sub_eq_array_g                           0x0002d4fc   Data         416  system_task.o(.constdata)
    sub_highpass_array                       0x0002d69c   Data          13  system_task.o(.constdata)
    protect_name                             0x0002d6ac   Data          32  system_task.o(.constdata)
    __FUNCTION__                             0x0002d6cc   Data          16  system_task.o(.constdata)
    __FUNCTION__                             0x0002d6dc   Data          18  system_task.o(.constdata)
    __FUNCTION__                             0x0002d6ee   Data          18  system_task.o(.constdata)
    __FUNCTION__                             0x0002d700   Data          12  system_task.o(.constdata)
    __FUNCTION__                             0x0002d70c   Data          26  system_task.o(.constdata)
    __FUNCTION__                             0x0002d726   Data          26  system_task.o(.constdata)
    __FUNCTION__                             0x0002d74a   Data          13  system_task.o(.constdata)
    __FUNCTION__                             0x0002d757   Data          20  system_task.o(.constdata)
    .constdata                               0x0002d76c   Section      432  display_task.o(.constdata)
    src_name                                 0x0002d76c   Data          12  display_task.o(.constdata)
    pre_name                                 0x0002d778   Data          24  display_task.o(.constdata)
    bright_name                              0x0002d790   Data          12  display_task.o(.constdata)
    bright_name_center                       0x0002d79c   Data          12  display_task.o(.constdata)
    delay_name                               0x0002d7dc   Data          12  display_task.o(.constdata)
    power_on_name                            0x0002d7e8   Data          16  display_task.o(.constdata)
    power_on_name_center                     0x0002d7f8   Data          16  display_task.o(.constdata)
    sense_theshold                           0x0002d808   Data          20  display_task.o(.constdata)
    sense_timeout                            0x0002d81c   Data          20  display_task.o(.constdata)
    __FUNCTION__                             0x0002d830   Data          19  display_task.o(.constdata)
    __FUNCTION__                             0x0002d843   Data          29  display_task.o(.constdata)
    __FUNCTION__                             0x0002d860   Data          18  display_task.o(.constdata)
    __FUNCTION__                             0x0002d872   Data          17  display_task.o(.constdata)
    __FUNCTION__                             0x0002d883   Data          16  display_task.o(.constdata)
    __FUNCTION__                             0x0002d893   Data          16  display_task.o(.constdata)
    __FUNCTION__                             0x0002d8a3   Data          20  display_task.o(.constdata)
    __FUNCTION__                             0x0002d8b7   Data          22  display_task.o(.constdata)
    __FUNCTION__                             0x0002d8cd   Data          25  display_task.o(.constdata)
    __FUNCTION__                             0x0002d8e6   Data          25  display_task.o(.constdata)
    __FUNCTION__                             0x0002d8ff   Data          16  display_task.o(.constdata)
    __FUNCTION__                             0x0002d90f   Data          13  display_task.o(.constdata)
    .constdata                               0x0002d91c   Section       25  eprom_driver.o(.constdata)
    __FUNCTION__                             0x0002d91c   Data          13  eprom_driver.o(.constdata)
    __FUNCTION__                             0x0002d929   Data          12  eprom_driver.o(.constdata)
    .constdata                               0x0002d935   Section       15  ir_driver.o(.constdata)
    __FUNCTION__                             0x0002d935   Data          15  ir_driver.o(.constdata)
    .constdata                               0x0002d944   Section    16324  cs485xx.o(.constdata)
    INITIAL_CFG                              0x0002d944   Data        1544  cs485xx.o(.constdata)
    KICKSTART_CFG                            0x0002df4c   Data           8  cs485xx.o(.constdata)
    PREKICKSTART_CFG                         0x0002df54   Data          80  cs485xx.o(.constdata)
    OS_P4_48520_01_01_RC79_ULD               0x0002dfa4   Data        2328  cs485xx.o(.constdata)
    TRIADRACKAMP700_P4_48520_01_0100_ULD     0x0002e8bc   Data       12364  cs485xx.o(.constdata)
    .constdata                               0x00031908   Section    355400  enet_fs.o(.constdata)
    data_about_htm                           0x00031908   Data       13202  enet_fs.o(.constdata)
    data_Config_htm                          0x00034c9a   Data        2377  enet_fs.o(.constdata)
    data_css_jslider_css                     0x000355e3   Data        2482  enet_fs.o(.constdata)
    data_css_jslider_plastic_css             0x00035f95   Data         151  enet_fs.o(.constdata)
    data_home_htm                            0x0003602c   Data       23913  enet_fs.o(.constdata)
    data_images_EQ_bg_png                    0x0003bd95   Data       28843  enet_fs.o(.constdata)
    data_images_file_btn_png                 0x00042e40   Data        4102  enet_fs.o(.constdata)
    data_images_header_bar_bg_png            0x00043e46   Data        1039  enet_fs.o(.constdata)
    data_images_info_gif                     0x00044255   Data        1504  enet_fs.o(.constdata)
    data_images_logo_png                     0x00044835   Data        7379  enet_fs.o(.constdata)
    data_images_screen_btn_png               0x00046508   Data        4542  enet_fs.o(.constdata)
    data_img_jslider_blue_png                0x000476c6   Data        1162  enet_fs.o(.constdata)
    data_img_jslider_plastic_png             0x00047b50   Data        1448  enet_fs.o(.constdata)
    data_img_jslider_png                     0x000480f8   Data        1150  enet_fs.o(.constdata)
    data_img_jslider_round_plastic_png       0x00048576   Data        1987  enet_fs.o(.constdata)
    data_img_jslider_round_png               0x00048d39   Data        1996  enet_fs.o(.constdata)
    data_ipConfig_htm                        0x00049505   Data       25404  enet_fs.o(.constdata)
    data_js_draggable_0_1_js                 0x0004f841   Data        4447  enet_fs.o(.constdata)
    data_js_fun_min_js                       0x000509a0   Data       75136  enet_fs.o(.constdata)
    data_js_jquery_dependClass_0_1_js        0x00062f20   Data        1442  enet_fs.o(.constdata)
    data_js_jquery_numberformatter_1_2_3_js  0x000634c2   Data       15767  enet_fs.o(.constdata)
    data_js_jquery_slider_js                 0x00067259   Data       20188  enet_fs.o(.constdata)
    data_js_jshashtable_2_1_src_js           0x0006c135   Data       10645  enet_fs.o(.constdata)
    data_js_tmpl_js                          0x0006eaca   Data        1207  enet_fs.o(.constdata)
    data_js_triadcomm_js                     0x0006ef81   Data        2481  enet_fs.o(.constdata)
    data_preset_htm                          0x0006f932   Data       26555  enet_fs.o(.constdata)
    data_readme_txt                          0x000760ed   Data        5580  enet_fs.o(.constdata)
    data_roomEQ_htm                          0x000776b9   Data       24034  enet_fs.o(.constdata)
    data_setup_htm                           0x0007d49b   Data       32098  enet_fs.o(.constdata)
    data_update_htm                          0x000851fd   Data       12537  enet_fs.o(.constdata)
    .constdata                               0x00088550   Section      204  lwiplib.o(.constdata)
    memp_sizes                               0x00088550   Data          26  lwiplib.o(.constdata)
    memp_num                                 0x0008856a   Data          26  lwiplib.o(.constdata)
    .constdata                               0x0008861c   Section     2531  web.o(.constdata)
    g_psHTTPHeaderStrings                    0x0008861c   Data         104  web.o(.constdata)
    g_psHTTPHeaders                          0x00088684   Data         136  web.o(.constdata)
    __FUNCTION__                             0x0008870c   Data          18  web.o(.constdata)
    __FUNCTION__                             0x0008871e   Data          17  web.o(.constdata)
    __FUNCTION__                             0x0008872f   Data          27  web.o(.constdata)
    __FUNCTION__                             0x0008874a   Data          26  web.o(.constdata)
    __FUNCTION__                             0x00088764   Data          28  web.o(.constdata)
    __FUNCTION__                             0x00088780   Data          28  web.o(.constdata)
    __FUNCTION__                             0x0008879c   Data          30  web.o(.constdata)
    __FUNCTION__                             0x000887ba   Data          27  web.o(.constdata)
    __FUNCTION__                             0x000887d5   Data          28  web.o(.constdata)
    __FUNCTION__                             0x000887f1   Data          17  web.o(.constdata)
    __FUNCTION__                             0x00088802   Data          21  web.o(.constdata)
    .constdata                               0x00089000   Section       24  emac.o(.constdata)
    g_pi16MIIClockDiv                        0x00089000   Data          24  emac.o(.constdata)
    .constdata                               0x00089018   Section      528  gpio.o(.constdata)
    g_ppui32GPIOIntMapBlizzard               0x00089018   Data         192  gpio.o(.constdata)
    g_ppui32GPIOIntMapSnowflake              0x000890d8   Data         192  gpio.o(.constdata)
    g_pui32GPIOBaseAddrs                     0x00089198   Data         144  gpio.o(.constdata)
    .constdata                               0x00089228   Section      268  interrupt.o(.constdata)
    g_pui32Priority                          0x00089228   Data          32  interrupt.o(.constdata)
    g_pui32Regs                              0x00089248   Data         156  interrupt.o(.constdata)
    g_pui32EnRegs                            0x000892e4   Data          20  interrupt.o(.constdata)
    g_pui32Dii16Regs                         0x000892f8   Data          20  interrupt.o(.constdata)
    g_pui32PendRegs                          0x0008930c   Data          20  interrupt.o(.constdata)
    g_pui32UnpendRegs                        0x00089320   Data          20  interrupt.o(.constdata)
    .constdata                               0x00089334   Section      460  sysctl.o(.constdata)
    g_pui32VCOFrequencies                    0x00089334   Data           8  sysctl.o(.constdata)
    g_pui32Xtals                             0x0008933c   Data         108  sysctl.o(.constdata)
    g_pppui32XTALtoVCO                       0x000893a8   Data         288  sysctl.o(.constdata)
    g_sXTALtoMEMTIM                          0x000894c8   Data          56  sysctl.o(.constdata)
    .constdata                               0x00089500   Section        8  _printf_wctomb.o(.constdata)
    initial_mbstate                          0x00089500   Data           8  _printf_wctomb.o(.constdata)
    .constdata                               0x00089508   Section       40  _printf_hex_int_ll_ptr.o(.constdata)
    uc_hextab                                0x00089508   Data          20  _printf_hex_int_ll_ptr.o(.constdata)
    lc_hextab                                0x0008951c   Data          20  _printf_hex_int_ll_ptr.o(.constdata)
    .constdata                               0x00089530   Section       17  __printf_flags_ss_wp.o(.constdata)
    maptable                                 0x00089530   Data          17  __printf_flags_ss_wp.o(.constdata)
    .constdata                               0x00089541   Section       38  _printf_fp_hex.o(.constdata)
    lc_hextab                                0x00089541   Data          19  _printf_fp_hex.o(.constdata)
    uc_hextab                                0x00089554   Data          19  _printf_fp_hex.o(.constdata)
    .constdata                               0x00089568   Section      148  bigflt0.o(.constdata)
    tenpwrs_x                                0x00089568   Data          60  bigflt0.o(.constdata)
    tenpwrs_i                                0x000895a4   Data          64  bigflt0.o(.constdata)
    .conststring                             0x000895fc   Section        7  main.o(.conststring)
    .conststring                             0x00089603   Section       91  system_task.o(.conststring)
    .conststring                             0x0008965e   Section      374  display_task.o(.conststring)
    .conststring                             0x000897d4   Section      509  lwiplib.o(.conststring)
    .conststring                             0x000899d1   Section     1014  web.o(.conststring)
    .conststrlit                             0x00089dc7   Section       32  osal_console.o(.conststrlit)
    .conststrlit                             0x00089de7   Section       23  system_task.o(.conststrlit)
    .conststrlit                             0x00089dfe   Section      131  display_task.o(.conststrlit)
    .conststrlit                             0x00089e81   Section       45  eprom_driver.o(.conststrlit)
    .conststrlit                             0x00089eae   Section       18  njw1195_driver.o(.conststrlit)
    locale$$data                             0x00089ee0   Section      272  lc_ctype_c.o(locale$$data)
    __lcctype_c_name                         0x00089ee4   Data           2  lc_ctype_c.o(locale$$data)
    __lcctype_c_start                        0x00089eec   Data           0  lc_ctype_c.o(locale$$data)
    locale$$data                             0x00089ff0   Section       28  lc_numeric_c.o(locale$$data)
    __lcctype_c_end                          0x00089ff0   Data           0  lc_ctype_c.o(locale$$data)
    __lcnum_c_name                           0x00089ff4   Data           2  lc_numeric_c.o(locale$$data)
    __lcnum_c_start                          0x00089ffc   Data           0  lc_numeric_c.o(locale$$data)
    __lcnum_c_point                          0x0008a008   Data           0  lc_numeric_c.o(locale$$data)
    __lcnum_c_thousands                      0x0008a00a   Data           0  lc_numeric_c.o(locale$$data)
    __lcnum_c_grouping                       0x0008a00b   Data           0  lc_numeric_c.o(locale$$data)
    INIT_CMD                                 0x0008a00c   Section       16  osal_console.o(INIT_CMD)
    __lcnum_c_end                            0x0008a00c   Data           0  lc_numeric_c.o(locale$$data)
    __tagsym$$used                           0x0008a00c   Number         0  osal_console.o(INIT_CMD)
    INIT_CMD                                 0x0008a01c   Section       16  system_task.o(INIT_CMD)
    __tagsym$$used                           0x0008a01c   Number         0  system_task.o(INIT_CMD)
    INIT_CMD                                 0x0008a02c   Section       80  display_task.o(INIT_CMD)
    __tagsym$$used                           0x0008a02c   Number         0  display_task.o(INIT_CMD)
    __tagsym$$used                           0x0008a03c   Number         0  display_task.o(INIT_CMD)
    __tagsym$$used                           0x0008a04c   Number         0  display_task.o(INIT_CMD)
    __tagsym$$used                           0x0008a05c   Number         0  display_task.o(INIT_CMD)
    __tagsym$$used                           0x0008a06c   Number         0  display_task.o(INIT_CMD)
    INIT_CMD                                 0x0008a07c   Section       32  eprom_driver.o(INIT_CMD)
    __tagsym$$used                           0x0008a07c   Number         0  eprom_driver.o(INIT_CMD)
    __tagsym$$used                           0x0008a08c   Number         0  eprom_driver.o(INIT_CMD)
    INIT_CMD                                 0x0008a09c   Section       16  njw1195_driver.o(INIT_CMD)
    __tagsym$$used                           0x0008a09c   Number         0  njw1195_driver.o(INIT_CMD)
    .data                                    0x20000000   Section        2  bsp.o(.data)
    cnt                                      0x20000000   Data           2  bsp.o(.data)
    .data                                    0x20000004   Section       60  tasks.o(.data)
    uxTasksDeleted                           0x20000008   Data           4  tasks.o(.data)
    xIdleTaskHandle                          0x2000000c   Data           4  tasks.o(.data)
    uxCurrentNumberOfTasks                   0x20000010   Data           4  tasks.o(.data)
    xTickCount                               0x20000014   Data           4  tasks.o(.data)
    uxTopReadyPriority                       0x20000018   Data           4  tasks.o(.data)
    xSchedulerRunning                        0x2000001c   Data           4  tasks.o(.data)
    uxSchedulerSuspended                     0x20000020   Data           4  tasks.o(.data)
    uxPendedTicks                            0x20000024   Data           4  tasks.o(.data)
    xYieldPending                            0x20000028   Data           4  tasks.o(.data)
    xNumOfOverflows                          0x2000002c   Data           4  tasks.o(.data)
    uxTaskNumber                             0x20000030   Data           4  tasks.o(.data)
    xNextTaskUnblockTime                     0x20000034   Data           4  tasks.o(.data)
    pxDelayedTaskList                        0x20000038   Data           4  tasks.o(.data)
    pxOverflowDelayedTaskList                0x2000003c   Data           4  tasks.o(.data)
    .data                                    0x20000040   Section        4  port.o(.data)
    uxCriticalNesting                        0x20000040   Data           4  port.o(.data)
    .data                                    0x20000044   Section       20  heap_4.o(.data)
    pxEnd                                    0x20000044   Data           4  heap_4.o(.data)
    xFreeBytesRemaining                      0x20000048   Data           4  heap_4.o(.data)
    xBlockAllocatedBit                       0x2000004c   Data           4  heap_4.o(.data)
    xStart                                   0x20000050   Data           8  heap_4.o(.data)
    .data                                    0x20000058   Section        8  main.o(.data)
    .data                                    0x20000060   Section        1  serial.o(.data)
    index                                    0x20000060   Data           1  serial.o(.data)
    .data                                    0x20000064   Section      171  keyboard.o(.data)
    .data                                    0x20000110   Section       20  osal_soft_iic.o(.data)
    epprom                                   0x20000110   Data          16  osal_soft_iic.o(.data)
    iic                                      0x20000120   Data           4  osal_soft_iic.o(.data)
    .data                                    0x20000124   Section       12  osal_ringbuf.o(.data)
    .data                                    0x20000130   Section      160  osal_detect.o(.data)
    .data                                    0x200001d0   Section       41  system_task.o(.data)
    sys_init_array                           0x200001e4   Data           8  system_task.o(.data)
    j                                        0x200001ec   Data           1  system_task.o(.data)
    j                                        0x200001ed   Data           1  system_task.o(.data)
    is_first                                 0x200001ee   Data           1  system_task.o(.data)
    .data                                    0x200001fc   Section       20  display_task.o(.data)
    cnt                                      0x200001fc   Data           1  display_task.o(.data)
    .data                                    0x20000210   Section       65  lcd_driver.o(.data)
    CGRAM                                    0x20000210   Data          64  lcd_driver.o(.data)
    stmr                                     0x20000250   Data           1  lcd_driver.o(.data)
    .data                                    0x20000252   Section       24  ir_driver.o(.data)
    .data                                    0x2000026c   Section        4  enet_fs.o(.data)
    ui32TickCounter                          0x2000026c   Data           4  enet_fs.o(.data)
    .data                                    0x20000270   Section      356  lwiplib.o(.data)
    err_strerr                               0x20000270   Data          64  lwiplib.o(.data)
    memp_desc                                0x200002b0   Data          52  lwiplib.o(.data)
    tcp_port                                 0x200002e4   Data           2  lwiplib.o(.data)
    udp_port                                 0x200002e6   Data           2  lwiplib.o(.data)
    g_StellarisIFData                        0x20000308   Data          12  lwiplib.o(.data)
    g_ui32IPMode                             0x20000314   Data           4  lwiplib.o(.data)
    g_bLinkActive                            0x20000318   Data           1  lwiplib.o(.data)
    static_ip_timeout                        0x2000031c   Data           4  lwiplib.o(.data)
    xid                                      0x20000320   Data           4  lwiplib.o(.data)
    iss                                      0x20000324   Data           4  lwiplib.o(.data)
    ip                                       0x20000328   Data           4  lwiplib.o(.data)
    tcpip_init_done                          0x2000032c   Data           4  lwiplib.o(.data)
    tcpip_init_done_arg                      0x20000330   Data           4  lwiplib.o(.data)
    ram                                      0x20000334   Data           4  lwiplib.o(.data)
    ram_end                                  0x20000338   Data           4  lwiplib.o(.data)
    lfree                                    0x2000033c   Data           4  lwiplib.o(.data)
    netif_num                                0x20000348   Data           1  lwiplib.o(.data)
    raw_pcbs                                 0x2000034c   Data           4  lwiplib.o(.data)
    tcp_timer                                0x20000369   Data           1  lwiplib.o(.data)
    tcp_timer_ctr                            0x2000036a   Data           1  lwiplib.o(.data)
    tcphdr                                   0x2000036c   Data           4  lwiplib.o(.data)
    iphdr                                    0x20000370   Data           4  lwiplib.o(.data)
    seqno                                    0x20000374   Data           4  lwiplib.o(.data)
    ackno                                    0x20000378   Data           4  lwiplib.o(.data)
    flags                                    0x2000037c   Data           1  lwiplib.o(.data)
    tcplen                                   0x2000037e   Data           2  lwiplib.o(.data)
    recv_flags                               0x20000380   Data           1  lwiplib.o(.data)
    recv_data                                0x20000384   Data           4  lwiplib.o(.data)
    next_timeout                             0x2000038c   Data           4  lwiplib.o(.data)
    tcpip_tcp_timer_active                   0x20000390   Data           4  lwiplib.o(.data)
    igmp_group_list                          0x20000398   Data           4  lwiplib.o(.data)
    allsystems                               0x2000039c   Data           4  lwiplib.o(.data)
    allrouters                               0x200003a0   Data           4  lwiplib.o(.data)
    ip_id                                    0x200003b4   Data           2  lwiplib.o(.data)
    etharp_cached_entry                      0x200003b6   Data           1  lwiplib.o(.data)
    g_ui32IPAddr                             0x200003c4   Data           4  lwiplib.o(.data)
    g_ui32NetMask                            0x200003c8   Data           4  lwiplib.o(.data)
    g_ui32GWAddr                             0x200003cc   Data           4  lwiplib.o(.data)
    g_pInterrupt                             0x200003d0   Data           4  lwiplib.o(.data)
    .data                                    0x200003d4   Section       72  web.o(.data)
    pjson                                    0x2000040c   Data           4  web.o(.data)
    .data                                    0x2000041c   Section        6  ff.o(.data)
    FatFs                                    0x2000041c   Data           4  ff.o(.data)
    Fsid                                     0x20000420   Data           2  ff.o(.data)
    .data                                    0x20000422   Section        5  mmc-dk-tm4c129x.o(.data)
    Stat                                     0x20000422   Data           1  mmc-dk-tm4c129x.o(.data)
    PowerFlag                                0x20000423   Data           1  mmc-dk-tm4c129x.o(.data)
    Timer1                                   0x20000424   Data           1  mmc-dk-tm4c129x.o(.data)
    Timer2                                   0x20000425   Data           1  mmc-dk-tm4c129x.o(.data)
    CardType                                 0x20000426   Data           1  mmc-dk-tm4c129x.o(.data)
    .data                                    0x20000428   Section        4  strtok.o(.data)
    _strtok_saves1                           0x20000428   Data           4  strtok.o(.data)
    .bss                                     0x2000042c   Section       80  queue.o(.bss)
    .bss                                     0x2000047c   Section      300  tasks.o(.bss)
    pxReadyTasksLists                        0x2000047c   Data         200  tasks.o(.bss)
    xDelayedTaskList1                        0x20000544   Data          20  tasks.o(.bss)
    xDelayedTaskList2                        0x20000558   Data          20  tasks.o(.bss)
    xPendingReadyList                        0x2000056c   Data          20  tasks.o(.bss)
    xTasksWaitingTermination                 0x20000580   Data          20  tasks.o(.bss)
    xSuspendedTaskList                       0x20000594   Data          20  tasks.o(.bss)
    .bss                                     0x200005a8   Section    45056  heap_4.o(.bss)
    ucHeap                                   0x200005a8   Data       45056  heap_4.o(.bss)
    .bss                                     0x2000b5a8   Section      652  serial.o(.bss)
    buf                                      0x2000b5a8   Data         128  serial.o(.bss)
    .bss                                     0x2000b834   Section       84  system_task.o(.bss)
    .bss                                     0x2000b888   Section      264  display_task.o(.bss)
    menu_context                             0x2000b888   Data         264  display_task.o(.bss)
    .bss                                     0x2000b990   Section     1072  ir_driver.o(.bss)
    ir                                       0x2000bda8   Data          12  ir_driver.o(.bss)
    ir_jack                                  0x2000bdb4   Data          12  ir_driver.o(.bss)
    .bss                                     0x2000bdc0   Section      564  enet_fs.o(.bss)
    g_sFatFs                                 0x2000bdc0   Data         564  enet_fs.o(.bss)
    .bss                                     0x2000bff4   Section    106020  lwiplib.o(.bss)
    str                                      0x2000bff4   Data          16  lwiplib.o(.bss)
    mbox                                     0x2000c004   Data         136  lwiplib.o(.bss)
    mem_mutex                                0x2001c0dc   Data          12  lwiplib.o(.bss)
    memp_tab                                 0x2001c0e8   Data          52  lwiplib.o(.bss)
    memp_memory                              0x2001c11c   Data       35731  lwiplib.o(.bss)
    inseg                                    0x20024e88   Data          20  lwiplib.o(.bss)
    arp_table                                0x20024e9c   Data         200  lwiplib.o(.bss)
    sems                                     0x20024f64   Data         192  lwiplib.o(.bss)
    mboxes                                   0x20025024   Data        2176  lwiplib.o(.bss)
    threads                                  0x200258a4   Data         140  lwiplib.o(.bss)
    g_sNetIF                                 0x20025ddc   Data          60  lwiplib.o(.bss)
    .bss                                     0x20025e18   Section     4608  web.o(.bss)
    jsbuf                                    0x20025e18   Data         512  web.o(.bss)
    httpd_recv_buf                           0x20026018   Data        1024  web.o(.bss)
    httpd_send_buf                           0x20026418   Data        1024  web.o(.bss)
    json_output_buf                          0x20026818   Data        2048  web.o(.bss)
    .bss                                     0x20027018   Section       88  netconf.o(.bss)
    .bss                                     0x20027070   Section      228  rand.o(.bss)
    .bss                                     0x20027154   Section       96  libspace.o(.bss)
    HEAP                                     0x200271b8   Section        0  startup_rvmdk.o(HEAP)
    STACK                                    0x200271b8   Section     8192  startup_rvmdk.o(STACK)
    HeapMem                                  0x200271b8   Data           0  startup_rvmdk.o(HEAP)
    StackMem                                 0x200271b8   Data           0  startup_rvmdk.o(STACK)

    Global Symbols

    Symbol Name                              Value     Ov Type        Size  Object(Section)

    BuildAttributes$$THM_ISAv4$E$P$D$K$B$S$7EM$VFPi3$EXTD16$VFPS$VFMA$PE$A:L22UL41UL21$X:L11$S22US41US21$IEEE1$IW$USESV6$~STKCKD$USESV7$~SHL$OTIME$ROPI$IEEEJ$EBA8$UX$STANDARDLIB$REQ8$PRES8$EABIv2 0x00000000   Number         0  anon$$obj.o ABSOLUTE
    __ARM_use_no_argv                        0x00000000   Number         0  main.o ABSOLUTE
    _printf_flags                            0x00000000   Number         0  printf_stubs.o ABSOLUTE
    _printf_return_value                     0x00000000   Number         0  printf_stubs.o ABSOLUTE
    _printf_sizespec                         0x00000000   Number         0  printf_stubs.o ABSOLUTE
    _printf_widthprec                        0x00000000   Number         0  printf_stubs.o ABSOLUTE
    __ARM_exceptions_init                     - Undefined Weak Reference
    __alloca_initialize                       - Undefined Weak Reference
    __cpp_initialize__aeabi_                  - Undefined Weak Reference
    __cxa_finalize                            - Undefined Weak Reference
    __sigvec_lookup                           - Undefined Weak Reference
    _atexit_init                              - Undefined Weak Reference
    _call_atexit_fns                          - Undefined Weak Reference
    _clock_init                               - Undefined Weak Reference
    _fp_trap_init                             - Undefined Weak Reference
    _fp_trap_shutdown                         - Undefined Weak Reference
    _get_lc_collate                           - Undefined Weak Reference
    _get_lc_monetary                          - Undefined Weak Reference
    _get_lc_time                              - Undefined Weak Reference
    _getenv_init                              - Undefined Weak Reference
    _handle_redirection                       - Undefined Weak Reference
    _init_alloc                               - Undefined Weak Reference
    _init_user_alloc                          - Undefined Weak Reference
    _initio                                   - Undefined Weak Reference
    _printf_mbtowc                            - Undefined Weak Reference
    _printf_wc                                - Undefined Weak Reference
    _scanf_longlong                           - Undefined Weak Reference
    _scanf_mbtowc                             - Undefined Weak Reference
    _scanf_real                               - Undefined Weak Reference
    _scanf_string                             - Undefined Weak Reference
    _scanf_wctomb                             - Undefined Weak Reference
    _scanf_wstring                            - Undefined Weak Reference
    _signal_finish                            - Undefined Weak Reference
    _signal_init                              - Undefined Weak Reference
    _terminate_alloc                          - Undefined Weak Reference
    _terminate_user_alloc                     - Undefined Weak Reference
    _terminateio                              - Undefined Weak Reference
    Load$$INIT_SECTION$$Length               0x000000a0   Number         0  anon$$obj.o ABSOLUTE
    __Vectors                                0x0000d000   Data           0  startup_rvmdk.o(RESET)
    Reset_Handler                            0x0000d201   Thumb Code     0  startup_rvmdk.o(RESET)
    __main                                   0x0000d21d   Thumb Code     8  __main.o(!!!main)
    __scatterload                            0x0000d225   Thumb Code     0  __scatter.o(!!!scatter)
    __scatterload_rt2                        0x0000d225   Thumb Code    44  __scatter.o(!!!scatter)
    __scatterload_rt2_thumb_only             0x0000d225   Thumb Code     0  __scatter.o(!!!scatter)
    __scatterload_null                       0x0000d233   Thumb Code     0  __scatter.o(!!!scatter)
    __decompress                             0x0000d259   Thumb Code    90  __dczerorl2.o(!!dczerorl2)
    __decompress1                            0x0000d259   Thumb Code     0  __dczerorl2.o(!!dczerorl2)
    __scatterload_zeroinit                   0x0000d2b5   Thumb Code    28  __scatter_zi.o(!!handler_zi)
    _printf_n                                0x0000d2d1   Thumb Code     0  _printf_n.o(.ARM.Collect$$_printf_percent$$00000001)
    _printf_percent                          0x0000d2d1   Thumb Code     0  _printf_percent.o(.ARM.Collect$$_printf_percent$$00000000)
    _printf_p                                0x0000d2d7   Thumb Code     0  _printf_p.o(.ARM.Collect$$_printf_percent$$00000002)
    _printf_f                                0x0000d2dd   Thumb Code     0  _printf_f.o(.ARM.Collect$$_printf_percent$$00000003)
    _printf_e                                0x0000d2e3   Thumb Code     0  _printf_e.o(.ARM.Collect$$_printf_percent$$00000004)
    _printf_g                                0x0000d2e9   Thumb Code     0  _printf_g.o(.ARM.Collect$$_printf_percent$$00000005)
    _printf_a                                0x0000d2ef   Thumb Code     0  _printf_a.o(.ARM.Collect$$_printf_percent$$00000006)
    _printf_ll                               0x0000d2f5   Thumb Code     0  _printf_ll.o(.ARM.Collect$$_printf_percent$$00000007)
    _printf_i                                0x0000d2ff   Thumb Code     0  _printf_i.o(.ARM.Collect$$_printf_percent$$00000008)
    _printf_d                                0x0000d305   Thumb Code     0  _printf_d.o(.ARM.Collect$$_printf_percent$$00000009)
    _printf_u                                0x0000d30b   Thumb Code     0  _printf_u.o(.ARM.Collect$$_printf_percent$$0000000A)
    _printf_o                                0x0000d311   Thumb Code     0  _printf_o.o(.ARM.Collect$$_printf_percent$$0000000B)
    _printf_x                                0x0000d317   Thumb Code     0  _printf_x.o(.ARM.Collect$$_printf_percent$$0000000C)
    _printf_lli                              0x0000d31d   Thumb Code     0  _printf_lli.o(.ARM.Collect$$_printf_percent$$0000000D)
    _printf_lld                              0x0000d323   Thumb Code     0  _printf_lld.o(.ARM.Collect$$_printf_percent$$0000000E)
    _printf_llu                              0x0000d329   Thumb Code     0  _printf_llu.o(.ARM.Collect$$_printf_percent$$0000000F)
    _printf_llo                              0x0000d32f   Thumb Code     0  _printf_llo.o(.ARM.Collect$$_printf_percent$$00000010)
    _printf_llx                              0x0000d335   Thumb Code     0  _printf_llx.o(.ARM.Collect$$_printf_percent$$00000011)
    _printf_l                                0x0000d33b   Thumb Code     0  _printf_l.o(.ARM.Collect$$_printf_percent$$00000012)
    _printf_c                                0x0000d345   Thumb Code     0  _printf_c.o(.ARM.Collect$$_printf_percent$$00000013)
    _printf_s                                0x0000d34b   Thumb Code     0  _printf_s.o(.ARM.Collect$$_printf_percent$$00000014)
    _printf_lc                               0x0000d351   Thumb Code     0  _printf_lc.o(.ARM.Collect$$_printf_percent$$00000015)
    _printf_ls                               0x0000d357   Thumb Code     0  _printf_ls.o(.ARM.Collect$$_printf_percent$$00000016)
    _printf_percent_end                      0x0000d35d   Thumb Code     0  _printf_percent_end.o(.ARM.Collect$$_printf_percent$$00000017)
    __rt_lib_init                            0x0000d361   Thumb Code     0  libinit.o(.ARM.Collect$$libinit$$00000000)
    __rt_lib_init_fp_1                       0x0000d363   Thumb Code     0  libinit2.o(.ARM.Collect$$libinit$$00000001)
    __rt_lib_init_heap_1                     0x0000d367   Thumb Code     0  libinit2.o(.ARM.Collect$$libinit$$00000008)
    __rt_lib_init_rand_2                     0x0000d367   Thumb Code     0  libinit2.o(.ARM.Collect$$libinit$$0000000B)
    __rt_lib_init_user_alloc_1               0x0000d367   Thumb Code     0  libinit2.o(.ARM.Collect$$libinit$$0000000A)
    __rt_lib_init_lc_common                  0x0000d36b   Thumb Code     0  libinit2.o(.ARM.Collect$$libinit$$0000000D)
    __rt_lib_init_rand_1                     0x0000d36b   Thumb Code     0  libinit2.o(.ARM.Collect$$libinit$$0000000C)
    __rt_lib_init_lc_collate_1               0x0000d371   Thumb Code     0  libinit2.o(.ARM.Collect$$libinit$$0000000F)
    __rt_lib_init_lc_ctype_2                 0x0000d371   Thumb Code     0  libinit2.o(.ARM.Collect$$libinit$$00000010)
    __rt_lib_init_lc_ctype_1                 0x0000d37d   Thumb Code     0  libinit2.o(.ARM.Collect$$libinit$$00000011)
    __rt_lib_init_lc_monetary_1              0x0000d37d   Thumb Code     0  libinit2.o(.ARM.Collect$$libinit$$00000013)
    __rt_lib_init_lc_numeric_2               0x0000d37d   Thumb Code     0  libinit2.o(.ARM.Collect$$libinit$$00000014)
    __rt_lib_init_alloca_1                   0x0000d387   Thumb Code     0  libinit2.o(.ARM.Collect$$libinit$$0000002C)
    __rt_lib_init_argv_1                     0x0000d387   Thumb Code     0  libinit2.o(.ARM.Collect$$libinit$$0000002A)
    __rt_lib_init_atexit_1                   0x0000d387   Thumb Code     0  libinit2.o(.ARM.Collect$$libinit$$00000019)
    __rt_lib_init_clock_1                    0x0000d387   Thumb Code     0  libinit2.o(.ARM.Collect$$libinit$$0000001F)
    __rt_lib_init_cpp_1                      0x0000d387   Thumb Code     0  libinit2.o(.ARM.Collect$$libinit$$00000030)
    __rt_lib_init_exceptions_1               0x0000d387   Thumb Code     0  libinit2.o(.ARM.Collect$$libinit$$0000002E)
    __rt_lib_init_fp_trap_1                  0x0000d387   Thumb Code     0  libinit2.o(.ARM.Collect$$libinit$$0000001D)
    __rt_lib_init_getenv_1                   0x0000d387   Thumb Code     0  libinit2.o(.ARM.Collect$$libinit$$00000021)
    __rt_lib_init_lc_numeric_1               0x0000d387   Thumb Code     0  libinit2.o(.ARM.Collect$$libinit$$00000015)
    __rt_lib_init_lc_time_1                  0x0000d387   Thumb Code     0  libinit2.o(.ARM.Collect$$libinit$$00000017)
    __rt_lib_init_return                     0x0000d387   Thumb Code     0  libinit2.o(.ARM.Collect$$libinit$$00000031)
    __rt_lib_init_signal_1                   0x0000d387   Thumb Code     0  libinit2.o(.ARM.Collect$$libinit$$0000001B)
    __rt_lib_init_stdio_1                    0x0000d387   Thumb Code     0  libinit2.o(.ARM.Collect$$libinit$$00000023)
    __rt_lib_shutdown                        0x0000d389   Thumb Code     0  libshutdown.o(.ARM.Collect$$libshutdown$$00000000)
    __rt_lib_shutdown_fp_trap_1              0x0000d38b   Thumb Code     0  libshutdown2.o(.ARM.Collect$$libshutdown$$00000006)
    __rt_lib_shutdown_heap_1                 0x0000d38b   Thumb Code     0  libshutdown2.o(.ARM.Collect$$libshutdown$$0000000E)
    __rt_lib_shutdown_return                 0x0000d38b   Thumb Code     0  libshutdown2.o(.ARM.Collect$$libshutdown$$0000000F)
    __rt_lib_shutdown_signal_1               0x0000d38b   Thumb Code     0  libshutdown2.o(.ARM.Collect$$libshutdown$$00000009)
    __rt_lib_shutdown_stdio_1                0x0000d38b   Thumb Code     0  libshutdown2.o(.ARM.Collect$$libshutdown$$00000003)
    __rt_lib_shutdown_user_alloc_1           0x0000d38b   Thumb Code     0  libshutdown2.o(.ARM.Collect$$libshutdown$$0000000B)
    __rt_entry                               0x0000d38d   Thumb Code     0  rtentry.o(.ARM.Collect$$rtentry$$00000000)
    __rt_entry_presh_1                       0x0000d38d   Thumb Code     0  rtentry2.o(.ARM.Collect$$rtentry$$00000002)
    __rt_entry_sh                            0x0000d38d   Thumb Code     0  rtentry4.o(.ARM.Collect$$rtentry$$00000004)
    __rt_entry_li                            0x0000d393   Thumb Code     0  rtentry2.o(.ARM.Collect$$rtentry$$0000000A)
    __rt_entry_postsh_1                      0x0000d393   Thumb Code     0  rtentry2.o(.ARM.Collect$$rtentry$$00000009)
    __rt_entry_main                          0x0000d397   Thumb Code     0  rtentry2.o(.ARM.Collect$$rtentry$$0000000D)
    __rt_entry_postli_1                      0x0000d397   Thumb Code     0  rtentry2.o(.ARM.Collect$$rtentry$$0000000C)
    __rt_exit                                0x0000d39f   Thumb Code     0  rtexit.o(.ARM.Collect$$rtexit$$00000000)
    __rt_exit_ls                             0x0000d3a1   Thumb Code     0  rtexit2.o(.ARM.Collect$$rtexit$$00000003)
    __rt_exit_prels_1                        0x0000d3a1   Thumb Code     0  rtexit2.o(.ARM.Collect$$rtexit$$00000002)
    __rt_exit_exit                           0x0000d3a5   Thumb Code     0  rtexit2.o(.ARM.Collect$$rtexit$$00000004)
    vPortSVCHandler                          0x0000d3ad   Thumb Code    24  port.o(.emb_text)
    __asm___6_port_c_39a90d8d__prvStartFirstTask 0x0000d3c9   Thumb Code    16  port.o(.emb_text)
    __asm___6_port_c_39a90d8d__prvEnableVFP  0x0000d3dd   Thumb Code    16  port.o(.emb_text)
    xPortPendSVHandler                       0x0000d3f1   Thumb Code    74  port.o(.emb_text)
    ulPortSetInterruptMask                   0x0000d441   Thumb Code    14  port.o(.emb_text)
    vPortClearInterruptMask                  0x0000d44f   Thumb Code     6  port.o(.emb_text)
    vPortGetIPSR                             0x0000d455   Thumb Code     6  port.o(.emb_text)
    SysCtlDelay                              0x0000d45d   Thumb Code     6  sysctl.o(.emb_text)
    CPUcpsid                                 0x0000d465   Thumb Code     8  cpu.o(.emb_text)
    CPUprimask                               0x0000d46d   Thumb Code     6  cpu.o(.emb_text)
    CPUcpsie                                 0x0000d473   Thumb Code     8  cpu.o(.emb_text)
    CPUwfi                                   0x0000d47b   Thumb Code     4  cpu.o(.emb_text)
    CPUbasepriSet                            0x0000d47f   Thumb Code     6  cpu.o(.emb_text)
    CPUbasepriGet                            0x0000d485   Thumb Code     6  cpu.o(.emb_text)
    rand                                     0x0000d48d   Thumb Code    48  rand.o(.emb_text)
    __user_initial_stackheap                 0x0000d4c1   Thumb Code     0  startup_rvmdk.o(.text)
    GPIOPinInputPu                           0x0000d4d9   Thumb Code    30  bsp.o(.text)
    bsp_gpio_init                            0x0000d4f7   Thumb Code   832  bsp.o(.text)
    bsp_timer1_init                          0x0000d837   Thumb Code    62  bsp.o(.text)
    bsp_timer0_init                          0x0000d875   Thumb Code    40  bsp.o(.text)
    bsp_timer0_get_time                      0x0000d89d   Thumb Code    20  bsp.o(.text)
    bsp_pwm0_init                            0x0000d8b1   Thumb Code   214  bsp.o(.text)
    bsp_pwm_for_sense_init                   0x0000d987   Thumb Code   114  bsp.o(.text)
    bsp_pwm_for_sense_set                    0x0000d9f9   Thumb Code    40  bsp.o(.text)
    bsp_lcd_bright_control                   0x0000da21   Thumb Code    56  bsp.o(.text)
    Timer1IntHandler                         0x0000da59   Thumb Code    44  bsp.o(.text)
    s_printf                                 0x0000da85   Thumb Code    80  bsp.o(.text)
    GPIO_ReadSinglePin                       0x0000dad5   Thumb Code    20  bsp.o(.text)
    bsp_delay_us                             0x0000dae9   Thumb Code    16  bsp.o(.text)
    bsp_delay_ms                             0x0000daf9   Thumb Code    22  bsp.o(.text)
    vListInitialise                          0x0000db35   Thumb Code    26  list.o(.text)
    vListInitialiseItem                      0x0000db4f   Thumb Code     6  list.o(.text)
    vListInsertEnd                           0x0000db55   Thumb Code    24  list.o(.text)
    vListInsert                              0x0000db6d   Thumb Code    52  list.o(.text)
    uxListRemove                             0x0000dba1   Thumb Code    40  list.o(.text)
    xQueueGenericReset                       0x0000dbc9   Thumb Code   110  queue.o(.text)
    xQueueGenericCreate                      0x0000dc37   Thumb Code    76  queue.o(.text)
    xQueueGenericSend                        0x0000dde3   Thumb Code   242  queue.o(.text)
    xQueueCreateMutex                        0x0000ded5   Thumb Code    76  queue.o(.text)
    xQueueGetMutexHolder                     0x0000df21   Thumb Code    26  queue.o(.text)
    xQueueGiveMutexRecursive                 0x0000df3b   Thumb Code    48  queue.o(.text)
    xQueueGenericReceive                     0x0000dfaf   Thumb Code   280  queue.o(.text)
    xQueueTakeMutexRecursive                 0x0000e0c7   Thumb Code    60  queue.o(.text)
    xQueueCreateCountingSemaphore            0x0000e103   Thumb Code    26  queue.o(.text)
    xQueueAltGenericSend                     0x0000e11d   Thumb Code   166  queue.o(.text)
    xQueueAltGenericReceive                  0x0000e1c3   Thumb Code   230  queue.o(.text)
    xQueueGenericSendFromISR                 0x0000e2a9   Thumb Code   128  queue.o(.text)
    xQueueReceiveFromISR                     0x0000e329   Thumb Code    96  queue.o(.text)
    xQueuePeekFromISR                        0x0000e389   Thumb Code    50  queue.o(.text)
    uxQueueMessagesWaiting                   0x0000e3bb   Thumb Code    18  queue.o(.text)
    uxQueueSpacesAvailable                   0x0000e3cd   Thumb Code    24  queue.o(.text)
    uxQueueMessagesWaitingFromISR            0x0000e3e5   Thumb Code     6  queue.o(.text)
    vQueueUnregisterQueue                    0x0000e3eb   Thumb Code    38  queue.o(.text)
    vQueueDelete                             0x0000e411   Thumb Code    26  queue.o(.text)
    xQueueIsQueueEmptyFromISR                0x0000e42b   Thumb Code    14  queue.o(.text)
    xQueueIsQueueFullFromISR                 0x0000e439   Thumb Code    18  queue.o(.text)
    vQueueAddToRegistry                      0x0000e44b   Thumb Code    38  queue.o(.text)
    xQueueCreateSet                          0x0000e471   Thumb Code    20  queue.o(.text)
    xQueueAddToSet                           0x0000e485   Thumb Code    38  queue.o(.text)
    xQueueRemoveFromSet                      0x0000e4ab   Thumb Code    48  queue.o(.text)
    xQueueSelectFromSet                      0x0000e4db   Thumb Code    26  queue.o(.text)
    xQueueSelectFromSetFromISR               0x0000e4f5   Thumb Code    22  queue.o(.text)
    xTaskGenericCreate                       0x0000e5eb   Thumb Code   226  tasks.o(.text)
    vTaskDelete                              0x0000e6cd   Thumb Code   124  tasks.o(.text)
    xTaskIncrementTick                       0x0000e749   Thumb Code   276  tasks.o(.text)
    xTaskResumeAll                           0x0000e85d   Thumb Code   268  tasks.o(.text)
    vTaskSuspendAll                          0x0000e9a7   Thumb Code    12  tasks.o(.text)
    vTaskDelayUntil                          0x0000e9b3   Thumb Code   126  tasks.o(.text)
    vTaskDelay                               0x0000ea31   Thumb Code    72  tasks.o(.text)
    eTaskGetState                            0x0000ea79   Thumb Code    86  tasks.o(.text)
    uxTaskPriorityGet                        0x0000eacf   Thumb Code    30  tasks.o(.text)
    vTaskPrioritySet                         0x0000eaed   Thumb Code   206  tasks.o(.text)
    vTaskSwitchContext                       0x0000ebbb   Thumb Code   134  tasks.o(.text)
    vTaskSuspend                             0x0000ec41   Thumb Code   130  tasks.o(.text)
    xTaskIsTaskSuspended                     0x0000ecc3   Thumb Code    56  tasks.o(.text)
    vTaskResume                              0x0000ecfb   Thumb Code   154  tasks.o(.text)
    xTaskResumeFromISR                       0x0000ed95   Thumb Code   112  tasks.o(.text)
    vTaskStartScheduler                      0x0000ee75   Thumb Code    54  tasks.o(.text)
    vTaskEndScheduler                        0x0000eeab   Thumb Code    18  tasks.o(.text)
    xTaskGetTickCount                        0x0000eebd   Thumb Code    18  tasks.o(.text)
    xTaskGetTickCountFromISR                 0x0000eecf   Thumb Code    22  tasks.o(.text)
    uxTaskGetNumberOfTasks                   0x0000eee5   Thumb Code     6  tasks.o(.text)
    pcTaskGetTaskName                        0x0000eeeb   Thumb Code    20  tasks.o(.text)
    xTaskGetIdleTaskHandle                   0x0000eeff   Thumb Code     6  tasks.o(.text)
    vTaskPlaceOnEventList                    0x0000ef05   Thumb Code    84  tasks.o(.text)
    xTaskRemoveFromEventList                 0x0000ef59   Thumb Code   104  tasks.o(.text)
    vTaskSetTimeOutState                     0x0000efc1   Thumb Code    14  tasks.o(.text)
    xTaskCheckForTimeOut                     0x0000efcf   Thumb Code    84  tasks.o(.text)
    vTaskMissedYield                         0x0000f023   Thumb Code     8  tasks.o(.text)
    uxTaskGetStackHighWaterMark              0x0000f041   Thumb Code    34  tasks.o(.text)
    xTaskGetCurrentTaskHandle                0x0000f063   Thumb Code     6  tasks.o(.text)
    xTaskGetSchedulerState                   0x0000f069   Thumb Code    24  tasks.o(.text)
    vTaskPriorityInherit                     0x0000f081   Thumb Code   156  tasks.o(.text)
    vTaskPriorityDisinherit                  0x0000f11d   Thumb Code   106  tasks.o(.text)
    vTaskEnterCritical                       0x0000f187   Thumb Code    98  tasks.o(.text)
    vTaskExitCritical                        0x0000f1e9   Thumb Code    46  tasks.o(.text)
    pxPortInitialiseStack                    0x0000f229   Thumb Code    34  port.o(.text)
    vPortSetupTimerInterrupt                 0x0000f24b   Thumb Code    14  port.o(.text)
    xPortStartScheduler                      0x0000f259   Thumb Code    58  port.o(.text)
    vPortEndScheduler                        0x0000f293   Thumb Code     2  port.o(.text)
    vPortYield                               0x0000f295   Thumb Code    20  port.o(.text)
    vPortEnterCritical                       0x0000f2a9   Thumb Code    26  port.o(.text)
    vPortExitCritical                        0x0000f2c3   Thumb Code    26  port.o(.text)
    xPortSysTickHandler                      0x0000f2dd   Thumb Code    30  port.o(.text)
    pvPortMalloc                             0x0000f3bf   Thumb Code   164  heap_4.o(.text)
    vPortFree                                0x0000f463   Thumb Code    64  heap_4.o(.text)
    xPortGetFreeHeapSize                     0x0000f4a3   Thumb Code     6  heap_4.o(.text)
    vPortInitialiseBlocks                    0x0000f4a9   Thumb Code     2  heap_4.o(.text)
    vApplicationStackOverflowHook            0x0000f4c1   Thumb Code    10  main.o(.text)
    vApplicationMallocFailedHook             0x0000f4cb   Thumb Code    10  main.o(.text)
    lwIPHostTimerHandler                     0x0000f4d5   Thumb Code     2  main.o(.text)
    main                                     0x0000f52d   Thumb Code   128  main.o(.text)
    bsp_uart_init                            0x0000f701   Thumb Code    64  serial.o(.text)
    uart0_interrupt_handler                  0x0000f741   Thumb Code    66  serial.o(.text)
    serial_poll_handler                      0x0000f797   Thumb Code   164  serial.o(.text)
    fn1                                      0x0000f861   Thumb Code    68  osal_console.o(.text)
    Init_all                                 0x0000f8a5   Thumb Code    44  osal_console.o(.text)
    osal_run_command                         0x0000f9a5   Thumb Code    44  osal_console.o(.text)
    dis_timeout_handler                      0x000109e3   Thumb Code    56  keyboard.o(.text)
    keyboard_msg_handler                     0x00010a1b   Thumb Code   510  keyboard.o(.text)
    ir_commond_handler                       0x00010d03   Thumb Code   292  keyboard.o(.text)
    KeyScanLoop                              0x00010e27   Thumb Code   324  keyboard.o(.text)
    osal_iic_write_buf                       0x00011165   Thumb Code   200  osal_soft_iic.o(.text)
    osal_iic_write_byte                      0x0001122d   Thumb Code    20  osal_soft_iic.o(.text)
    osal_iic_read_buf                        0x00011241   Thumb Code   158  osal_soft_iic.o(.text)
    calc_crc32                               0x0001134d   Thumb Code    40  osal_utility.o(.text)
    Utf2Unicode                              0x00011375   Thumb Code    98  osal_utility.o(.text)
    DumpBuf                                  0x000113d7   Thumb Code    40  osal_utility.o(.text)
    GetWeekdayType                           0x000113ff   Thumb Code    76  osal_utility.o(.text)
    ring_buffer_init                         0x0001145d   Thumb Code    62  osal_ringbuf.o(.text)
    ring_buffer_write                        0x0001149b   Thumb Code    84  osal_ringbuf.o(.text)
    ring_buffer_read                         0x000114ef   Thumb Code    72  osal_ringbuf.o(.text)
    Is_ring_buffer_empty                     0x00011537   Thumb Code    42  osal_ringbuf.o(.text)
    ring_buffer_len                          0x00011561   Thumb Code    34  osal_ringbuf.o(.text)
    update_detect_state                      0x000115cd   Thumb Code    38  osal_detect.o(.text)
    update_all_protect_state                 0x000115f3   Thumb Code    28  osal_detect.o(.text)
    DetectGpioPoll                           0x0001160f   Thumb Code   542  osal_detect.o(.text)
    dsp_master_vol_set                       0x00011871   Thumb Code   118  dsp_app.o(.text)
    dsp_subLpFre_set                         0x000118e7   Thumb Code   380  dsp_app.o(.text)
    dsp_subHpFreq_set                        0x00011a63   Thumb Code   308  dsp_app.o(.text)
    dsp_sub_hp_bypass                        0x00011b97   Thumb Code    68  dsp_app.o(.text)
    dsp_sub_lp_bypass                        0x00011bdb   Thumb Code    68  dsp_app.o(.text)
    dsp_lineout_hp_bypass                    0x00011c1f   Thumb Code   330  dsp_app.o(.text)
    dsp_delay_time_set                       0x00011d69   Thumb Code    64  dsp_app.o(.text)
    dsp_delay_switch_to_sub                  0x00011da9   Thumb Code    52  dsp_app.o(.text)
    dsp_delay_switch_to_line                 0x00011ddd   Thumb Code    50  dsp_app.o(.text)
    dsp_delay_switch_off                     0x00011e0f   Thumb Code    38  dsp_app.o(.text)
    dsp_eq_set_freq                          0x00011e35   Thumb Code    64  dsp_app.o(.text)
    dsp_eq_set_gain                          0x00011e75   Thumb Code    64  dsp_app.o(.text)
    dsp_eq_set_width                         0x00011eed   Thumb Code    64  dsp_app.o(.text)
    dsp_eq_off                               0x00011f2d   Thumb Code    18  dsp_app.o(.text)
    dsp_eq_on                                0x00011f3f   Thumb Code    18  dsp_app.o(.text)
    dsp_phrase_off                           0x00011f51   Thumb Code    18  dsp_app.o(.text)
    dsp_phrase_on                            0x00011f63   Thumb Code    18  dsp_app.o(.text)
    console_task                             0x00011fdd   Thumb Code    30  console_task.o(.text)
    sys_master_vol_set                       0x00012207   Thumb Code   106  system_task.o(.text)
    sys_input_init                           0x00012271   Thumb Code    84  system_task.o(.text)
    sys_lcd_bright_change                    0x0001234d   Thumb Code    44  system_task.o(.text)
    sys_power_on_handler                     0x00012545   Thumb Code   200  system_task.o(.text)
    sys_power_off_handler                    0x0001260d   Thumb Code   236  system_task.o(.text)
    sys_wake_up_handler                      0x00012785   Thumb Code    42  system_task.o(.text)
    sys_send_msg                             0x00012fc3   Thumb Code    30  system_task.o(.text)
    sys_ip_set_to_default                    0x00012fe1   Thumb Code    58  system_task.o(.text)
    sys_line_highpass_set                    0x000130ab   Thumb Code   114  system_task.o(.text)
    sys_load_roomeq                          0x0001311d   Thumb Code    84  system_task.o(.text)
    sys_eq_state_set                         0x00013171   Thumb Code    28  system_task.o(.text)
    sys_load_peq                             0x0001318d   Thumb Code   148  system_task.o(.text)
    sys_delay_time_set                       0x00013277   Thumb Code    48  system_task.o(.text)
    sys_delay_switch_to                      0x000132a7   Thumb Code   258  system_task.o(.text)
    sys_phrase_set                           0x000133a9   Thumb Code    32  system_task.o(.text)
    sys_sub_highpass_set                     0x000133f1   Thumb Code   130  system_task.o(.text)
    sys_sub_lowpass_set                      0x00013473   Thumb Code   144  system_task.o(.text)
    sys_sub_preset_load                      0x00013503   Thumb Code    64  system_task.o(.text)
    sys_factory_reset                        0x00013543   Thumb Code   152  system_task.o(.text)
    sys_audio_sense_thres_set                0x000135db   Thumb Code    46  system_task.o(.text)
    sys_database_init                        0x00013609   Thumb Code   950  system_task.o(.text)
    system_task                              0x00013a07   Thumb Code   124  system_task.o(.text)
    sys_send_msg_isr                         0x00013a83   Thumb Code    30  system_task.o(.text)
    sys_input_select                         0x00013ac7   Thumb Code    66  system_task.o(.text)
    sys_audio_valid_handler                  0x00013b61   Thumb Code   110  system_task.o(.text)
    sys_audio_invalid_handler                0x00013bcf   Thumb Code   118  system_task.o(.text)
    sys_trigger_valid_handler                0x00013f2b   Thumb Code    90  system_task.o(.text)
    sys_trigger_invalid_handler              0x00013f85   Thumb Code    76  system_task.o(.text)
    sys_peq_single_set                       0x00013fd1   Thumb Code    56  system_task.o(.text)
    sys_req_single_set                       0x00014009   Thumb Code    48  system_task.o(.text)
    sys_protect_valid_handler                0x00014135   Thumb Code   280  system_task.o(.text)
    sys_protect_invalid_handler              0x0001424d   Thumb Code   724  system_task.o(.text)
    sys_database0_update_later               0x00014521   Thumb Code    14  system_task.o(.text)
    sys_database1_update_later               0x0001452f   Thumb Code    14  system_task.o(.text)
    sys_database2_update_later               0x0001453d   Thumb Code    14  system_task.o(.text)
    sys_15v_valid_handler                    0x0001454b   Thumb Code    12  system_task.o(.text)
    sys_15v_invalid_handler                  0x00014557   Thumb Code    12  system_task.o(.text)
    sys_low_power_handler                    0x00014563   Thumb Code   114  system_task.o(.text)
    sys_ip_power_on_handler                  0x000145d5   Thumb Code    24  system_task.o(.text)
    lcd_test                                 0x000145ed   Thumb Code    24  system_task.o(.text)
    display_menu_list_create                 0x0001473b   Thumb Code    58  display_task.o(.text)
    display_menu_jump                        0x00014775   Thumb Code    80  display_task.o(.text)
    dis_send_msg                             0x00014db1   Thumb Code    30  display_task.o(.text)
    update_ip_menu                           0x00014dcf   Thumb Code    22  display_task.o(.text)
    cancle_welcome_timeout                   0x00015f4b   Thumb Code    14  display_task.o(.text)
    display_init_menu                        0x00015f59   Thumb Code    16  display_task.o(.text)
    display_task                             0x00015f69   Thumb Code   130  display_task.o(.text)
    dis_send_msg_isr                         0x00015feb   Thumb Code    30  display_task.o(.text)
    menu_list_create                         0x00016009   Thumb Code    26  display_task.o(.text)
    menu_list_next                           0x00016023   Thumb Code    58  display_task.o(.text)
    menu_list_prev                           0x0001605d   Thumb Code    42  display_task.o(.text)
    menu_list_enter                          0x00016087   Thumb Code    42  display_task.o(.text)
    dis_test                                 0x000160b1   Thumb Code    20  display_task.o(.text)
    lcd_write_cmd                            0x0001624d   Thumb Code   204  lcd_driver.o(.text)
    lcd_write_data                           0x00016319   Thumb Code   204  lcd_driver.o(.text)
    lcd_init                                 0x000163e5   Thumb Code   152  lcd_driver.o(.text)
    lcd_test_for_nad                         0x0001647d   Thumb Code    58  lcd_driver.o(.text)
    epprom_sda                               0x00016511   Thumb Code    52  eprom_driver.o(.text)
    epprom_scl                               0x00016545   Thumb Code    52  eprom_driver.o(.text)
    epprom_sda_in                            0x00016579   Thumb Code    12  eprom_driver.o(.text)
    eeprom_write                             0x00016585   Thumb Code    86  eprom_driver.o(.text)
    eeprom_read                              0x000165db   Thumb Code    50  eprom_driver.o(.text)
    eep_write                                0x0001660d   Thumb Code    62  eprom_driver.o(.text)
    eep_read                                 0x0001664b   Thumb Code    74  eprom_driver.o(.text)
    ir_in_recive_handler                     0x00016729   Thumb Code   434  ir_driver.o(.text)
    ir_front_recive_handler                  0x000168db   Thumb Code   428  ir_driver.o(.text)
    ir_get_commond                           0x00016a87   Thumb Code    78  ir_driver.o(.text)
    ir_timeout_check                         0x00016ad5   Thumb Code   200  ir_driver.o(.text)
    IrOutHandler                             0x00016b9d   Thumb Code   390  ir_driver.o(.text)
    njw1195_init                             0x00016e1b   Thumb Code    46  njw1195_driver.o(.text)
    njw1195_input_select                     0x00016e49   Thumb Code   102  njw1195_driver.o(.text)
    njw1195_volume_set                       0x00016eaf   Thumb Code    74  njw1195_driver.o(.text)
    njw1195_channel_mute                     0x00016ef9   Thumb Code    38  njw1195_driver.o(.text)
    clk_gpio_test                            0x00016f1f   Thumb Code    76  njw1195_driver.o(.text)
    SmartDelay_spi2                          0x00016fc5   Thumb Code    14  cs4251x.o(.text)
    xSPI2PutByte                             0x00016fd3   Thumb Code   148  cs4251x.o(.text)
    cs4251x_read                             0x00017067   Thumb Code    90  cs4251x.o(.text)
    cs4251x_write                            0x000170c1   Thumb Code    72  cs4251x.o(.text)
    CS4251X_Init                             0x00017109   Thumb Code   154  cs4251x.o(.text)
    vCS485xxStatusCheck                      0x000171e1   Thumb Code    78  cs485xx.o(.text)
    xCS485xxWriteBlock                       0x0001722f   Thumb Code   176  cs485xx.o(.text)
    xCS485xxReadBlock                        0x000172df   Thumb Code   160  cs485xx.o(.text)
    xCS485xxWriteCmd                         0x0001737f   Thumb Code    46  cs485xx.o(.text)
    xCS485xxReadCmd                          0x000173ad   Thumb Code    48  cs485xx.o(.text)
    xCS485xxWriteRegister                    0x000173dd   Thumb Code    72  cs485xx.o(.text)
    xCS485xxReadRegSolicited                 0x00017425   Thumb Code   162  cs485xx.o(.text)
    xCS485xxReadRegUnsolicited               0x000174c7   Thumb Code    82  cs485xx.o(.text)
    Dsp0_ReadCmd                             0x00017519   Thumb Code     8  cs485xx.o(.text)
    Dsp0_WriteRegister                       0x00017521   Thumb Code    16  cs485xx.o(.text)
    Dsp0_ReadRegSolicited                    0x00017531   Thumb Code    16  cs485xx.o(.text)
    Dsp0_ReadRegUnsolicited                  0x00017541   Thumb Code     8  cs485xx.o(.text)
    xCS485xxSlaveBoot                        0x00017549   Thumb Code   580  cs485xx.o(.text)
    dsp_boot_init                            0x0001778d   Thumb Code    42  cs485xx.o(.text)
    SpiDelay                                 0x00017869   Thumb Code    14  sw_spi.o(.text)
    SmartDelay_spi                           0x000178c7   Thumb Code    14  sw_spi.o(.text)
    SWReadSPI                                0x000178d5   Thumb Code    72  sw_spi.o(.text)
    SWWriteSPI                               0x0001791d   Thumb Code    84  sw_spi.o(.text)
    fs_init                                  0x00017979   Thumb Code    12  enet_fs.o(.text)
    fs_tick                                  0x00017985   Thumb Code    32  enet_fs.o(.text)
    fs_open                                  0x000179a5   Thumb Code   164  enet_fs.o(.text)
    fs_close                                 0x00017a49   Thumb Code    22  enet_fs.o(.text)
    fs_read                                  0x00017a5f   Thumb Code    96  enet_fs.o(.text)
    fs_bytes_left                            0x00017abf   Thumb Code    26  enet_fs.o(.text)
    sys_arch_unprotect                       0x00017aed   Thumb Code    10  lwiplib.o(.text)
    sys_arch_protect                         0x00017af7   Thumb Code    10  lwiplib.o(.text)
    memp_free                                0x00017b01   Thumb Code    76  lwiplib.o(.text)
    sys_mbox_free                            0x00017b4d   Thumb Code   108  lwiplib.o(.text)
    sys_sem_free                             0x00017bb9   Thumb Code    78  lwiplib.o(.text)
    sys_mbox_valid                           0x00017c07   Thumb Code    14  lwiplib.o(.text)
    sys_sem_valid                            0x00017c15   Thumb Code    14  lwiplib.o(.text)
    sys_arch_sem_wait                        0x00017c23   Thumb Code    74  lwiplib.o(.text)
    sys_mbox_post                            0x00017c6d   Thumb Code    24  lwiplib.o(.text)
    tcpip_apimsg                             0x00017c85   Thumb Code    60  lwiplib.o(.text)
    sys_sem_signal                           0x00017cc1   Thumb Code    18  lwiplib.o(.text)
    sys_mbox_trypost                         0x00017cd3   Thumb Code    50  lwiplib.o(.text)
    tcp_err                                  0x00017dd5   Thumb Code    10  lwiplib.o(.text)
    tcp_arg                                  0x00017ddf   Thumb Code     4  lwiplib.o(.text)
    tcp_poll                                 0x00017de3   Thumb Code    14  lwiplib.o(.text)
    mem_free                                 0x00017e6d   Thumb Code   188  lwiplib.o(.text)
    pbuf_free                                0x00017f29   Thumb Code   138  lwiplib.o(.text)
    tcp_seg_free                             0x00017fb3   Thumb Code    26  lwiplib.o(.text)
    lwip_htonl                               0x00017fcd   Thumb Code    26  lwiplib.o(.text)
    lwip_ntohl                               0x00017fe7   Thumb Code    12  lwiplib.o(.text)
    lwip_htons                               0x00017ff3   Thumb Code    12  lwiplib.o(.text)
    lwip_ntohs                               0x00017fff   Thumb Code    12  lwiplib.o(.text)
    pbuf_header                              0x0001800b   Thumb Code   134  lwiplib.o(.text)
    ip_output_if_opt                         0x00018091   Thumb Code   302  lwiplib.o(.text)
    ip_output_if                             0x000181bf   Thumb Code    52  lwiplib.o(.text)
    ip_route                                 0x000181f3   Thumb Code    92  lwiplib.o(.text)
    ip_output                                0x0001824f   Thumb Code    72  lwiplib.o(.text)
    tcp_eff_send_mss                         0x00018297   Thumb Code    42  lwiplib.o(.text)
    memp_malloc                              0x0001839f   Thumb Code   186  lwiplib.o(.text)
    mem_malloc                               0x00018459   Thumb Code   402  lwiplib.o(.text)
    tcp_segs_free                            0x000185eb   Thumb Code    24  lwiplib.o(.text)
    tcpip_callback_with_block                0x00018645   Thumb Code    90  lwiplib.o(.text)
    pbuf_alloc                               0x000186dd   Thumb Code   424  lwiplib.o(.text)
    tcp_send_empty_ack                       0x00018921   Thumb Code    86  lwiplib.o(.text)
    tcp_output                               0x00018977   Thumb Code   444  lwiplib.o(.text)
    pbuf_cat                                 0x00018b33   Thumb Code    56  lwiplib.o(.text)
    pbuf_clen                                0x00018c33   Thumb Code    18  lwiplib.o(.text)
    tcp_write                                0x00018d4d   Thumb Code  1004  lwiplib.o(.text)
    tcp_sent                                 0x00019315   Thumb Code     8  lwiplib.o(.text)
    tcp_enqueue_flags                        0x0001931d   Thumb Code   358  lwiplib.o(.text)
    tcp_send_fin                             0x00019483   Thumb Code    74  lwiplib.o(.text)
    tcp_pcb_purge                            0x000194cd   Thumb Code   176  lwiplib.o(.text)
    tcp_pcb_remove                           0x0001957d   Thumb Code   144  lwiplib.o(.text)
    sys_timeout                              0x0001960d   Thumb Code   152  lwiplib.o(.text)
    tcp_rst                                  0x000196a5   Thumb Code   144  lwiplib.o(.text)
    tcp_keepalive                            0x00019735   Thumb Code    98  lwiplib.o(.text)
    tcp_rexmit_rto                           0x00019797   Thumb Code    58  lwiplib.o(.text)
    pbuf_copy_partial                        0x000197d1   Thumb Code   146  lwiplib.o(.text)
    tcp_zero_window_probe                    0x00019863   Thumb Code   194  lwiplib.o(.text)
    tcp_slowtmr                              0x00019925   Thumb Code   908  lwiplib.o(.text)
    tcp_close                                0x00019cb1   Thumb Code    28  lwiplib.o(.text)
    tcp_update_rcv_ann_wnd                   0x00019ccd   Thumb Code    78  lwiplib.o(.text)
    tcp_recved                               0x00019d1b   Thumb Code    72  lwiplib.o(.text)
    tcp_recv_null                            0x00019d63   Thumb Code    78  lwiplib.o(.text)
    tcp_process_refused_data                 0x00019db1   Thumb Code   150  lwiplib.o(.text)
    tcp_fasttmr                              0x00019e47   Thumb Code   114  lwiplib.o(.text)
    tcp_tmr                                  0x00019eb9   Thumb Code    30  lwiplib.o(.text)
    tcp_timer_needed                         0x00019eff   Thumb Code    38  lwiplib.o(.text)
    tcp_shutdown                             0x0001a0d3   Thumb Code    98  lwiplib.o(.text)
    tcp_accept                               0x0001a135   Thumb Code     4  lwiplib.o(.text)
    tcp_recv                                 0x0001a139   Thumb Code    10  lwiplib.o(.text)
    tcp_next_iss                             0x0001a3d1   Thumb Code    20  lwiplib.o(.text)
    tcp_abandon                              0x0001a3e5   Thumb Code   150  lwiplib.o(.text)
    tcp_abort                                0x0001a47b   Thumb Code    14  lwiplib.o(.text)
    tcp_alloc                                0x0001a50f   Thumb Code   234  lwiplib.o(.text)
    tcp_new                                  0x0001a5f9   Thumb Code    10  lwiplib.o(.text)
    netbuf_delete                            0x0001a603   Thumb Code    32  lwiplib.o(.text)
    udp_recv                                 0x0001a6dd   Thumb Code     6  lwiplib.o(.text)
    udp_new                                  0x0001a6e3   Thumb Code    28  lwiplib.o(.text)
    pbuf_copy                                0x0001a6ff   Thumb Code   200  lwiplib.o(.text)
    raw_recv                                 0x0001a861   Thumb Code     6  lwiplib.o(.text)
    raw_new                                  0x0001a867   Thumb Code    46  lwiplib.o(.text)
    do_newconn                               0x0001a929   Thumb Code    32  lwiplib.o(.text)
    sys_mbox_set_invalid                     0x0001a949   Thumb Code     6  lwiplib.o(.text)
    sys_mbox_new                             0x0001a94f   Thumb Code   174  lwiplib.o(.text)
    sys_sem_new                              0x0001a9fd   Thumb Code   168  lwiplib.o(.text)
    netconn_alloc                            0x0001aaa5   Thumb Code   154  lwiplib.o(.text)
    netconn_new_with_proto_and_callback      0x0001ab3f   Thumb Code   116  lwiplib.o(.text)
    sys_sem_set_invalid                      0x0001abb3   Thumb Code     6  lwiplib.o(.text)
    netconn_free                             0x0001abb9   Thumb Code    58  lwiplib.o(.text)
    udp_remove                               0x0001abf3   Thumb Code    94  lwiplib.o(.text)
    raw_remove                               0x0001ac51   Thumb Code    60  lwiplib.o(.text)
    sys_arch_mbox_tryfetch                   0x0001ac8d   Thumb Code    36  lwiplib.o(.text)
    do_delconn                               0x0001ad65   Thumb Code   204  lwiplib.o(.text)
    netconn_delete                           0x0001ae31   Thumb Code    38  lwiplib.o(.text)
    do_getaddr                               0x0001ae57   Thumb Code   178  lwiplib.o(.text)
    netconn_getaddr                          0x0001af09   Thumb Code   110  lwiplib.o(.text)
    tcp_bind                                 0x0001afd7   Thumb Code   164  lwiplib.o(.text)
    udp_bind                                 0x0001b0cb   Thumb Code   146  lwiplib.o(.text)
    raw_bind                                 0x0001b15d   Thumb Code    16  lwiplib.o(.text)
    do_bind                                  0x0001b16d   Thumb Code   116  lwiplib.o(.text)
    netconn_bind                             0x0001b1e1   Thumb Code    82  lwiplib.o(.text)
    tcp_connect                              0x0001b2cd   Thumb Code   360  lwiplib.o(.text)
    udp_connect                              0x0001b435   Thumb Code    98  lwiplib.o(.text)
    raw_connect                              0x0001b497   Thumb Code    16  lwiplib.o(.text)
    do_connect                               0x0001b4a7   Thumb Code   210  lwiplib.o(.text)
    netconn_connect                          0x0001b579   Thumb Code    82  lwiplib.o(.text)
    udp_disconnect                           0x0001b5cb   Thumb Code    16  lwiplib.o(.text)
    do_disconnect                            0x0001b5db   Thumb Code    46  lwiplib.o(.text)
    netconn_disconnect                       0x0001b609   Thumb Code    68  lwiplib.o(.text)
    tcp_listen_with_backlog                  0x0001b70b   Thumb Code   212  lwiplib.o(.text)
    do_listen                                0x0001b7df   Thumb Code   224  lwiplib.o(.text)
    netconn_listen_with_backlog              0x0001b8bf   Thumb Code    74  lwiplib.o(.text)
    do_recv                                  0x0001b909   Thumb Code   104  lwiplib.o(.text)
    sys_arch_mbox_fetch                      0x0001b971   Thumb Code    78  lwiplib.o(.text)
    netconn_accept                           0x0001b9bf   Thumb Code   206  lwiplib.o(.text)
    netconn_recv_tcp_pbuf                    0x0001bbad   Thumb Code    34  lwiplib.o(.text)
    netconn_recv                             0x0001bbcf   Thumb Code   178  lwiplib.o(.text)
    netconn_recved                           0x0001bc81   Thumb Code    48  lwiplib.o(.text)
    pbuf_ref                                 0x0001bcb1   Thumb Code    26  lwiplib.o(.text)
    pbuf_chain                               0x0001bccb   Thumb Code    26  lwiplib.o(.text)
    udp_sendto_if                            0x0001bce5   Thumb Code   282  lwiplib.o(.text)
    udp_sendto                               0x0001bdff   Thumb Code    88  lwiplib.o(.text)
    udp_send                                 0x0001be57   Thumb Code    20  lwiplib.o(.text)
    raw_sendto                               0x0001be6b   Thumb Code   172  lwiplib.o(.text)
    raw_send                                 0x0001bf17   Thumb Code    18  lwiplib.o(.text)
    do_send                                  0x0001bf29   Thumb Code   166  lwiplib.o(.text)
    netconn_send                             0x0001bfcf   Thumb Code    76  lwiplib.o(.text)
    netconn_sendto                           0x0001c01b   Thumb Code    44  lwiplib.o(.text)
    do_write                                 0x0001c047   Thumb Code   110  lwiplib.o(.text)
    netconn_write_partly                     0x0001c0b5   Thumb Code   168  lwiplib.o(.text)
    do_close                                 0x0001c15d   Thumb Code   124  lwiplib.o(.text)
    netconn_close                            0x0001c223   Thumb Code    14  lwiplib.o(.text)
    netconn_shutdown                         0x0001c231   Thumb Code    36  lwiplib.o(.text)
    inet_chksum                              0x0001c341   Thumb Code    20  lwiplib.o(.text)
    igmp_lookfor_group                       0x0001c3e7   Thumb Code    40  lwiplib.o(.text)
    igmp_leavegroup                          0x0001c40f   Thumb Code   218  lwiplib.o(.text)
    igmp_joingroup                           0x0001c55b   Thumb Code   214  lwiplib.o(.text)
    do_join_leave_group                      0x0001c631   Thumb Code   116  lwiplib.o(.text)
    netconn_join_leave_group                 0x0001c6a5   Thumb Code    86  lwiplib.o(.text)
    lwip_strerr                              0x0001c6fb   Thumb Code    12  lwiplib.o(.text)
    netbuf_new                               0x0001c707   Thumb Code    30  lwiplib.o(.text)
    netbuf_alloc                             0x0001c725   Thumb Code    60  lwiplib.o(.text)
    netbuf_free                              0x0001c761   Thumb Code    32  lwiplib.o(.text)
    netbuf_ref                               0x0001c781   Thumb Code    74  lwiplib.o(.text)
    netbuf_chain                             0x0001c7cb   Thumb Code    46  lwiplib.o(.text)
    netbuf_data                              0x0001c7f9   Thumb Code    64  lwiplib.o(.text)
    netbuf_next                              0x0001c839   Thumb Code    46  lwiplib.o(.text)
    netbuf_first                             0x0001c867   Thumb Code    16  lwiplib.o(.text)
    sys_untimeout                            0x0001c877   Thumb Code    90  lwiplib.o(.text)
    icmp_dest_unreach                        0x0001c967   Thumb Code    18  lwiplib.o(.text)
    ip4_addr_isbroadcast                     0x0001c979   Thumb Code    78  lwiplib.o(.text)
    igmp_input                               0x0001c9f1   Thumb Code   518  lwiplib.o(.text)
    inet_chksum_pbuf                         0x0001cbf7   Thumb Code    86  lwiplib.o(.text)
    icmp_input                               0x0001cc4d   Thumb Code   504  lwiplib.o(.text)
    mem_trim                                 0x0001ce45   Thumb Code   364  lwiplib.o(.text)
    pbuf_realloc                             0x0001cfb1   Thumb Code   120  lwiplib.o(.text)
    tcp_seg_copy                             0x0001d029   Thumb Code    38  lwiplib.o(.text)
    tcp_rexmit                               0x0001d0d9   Thumb Code    86  lwiplib.o(.text)
    tcp_rexmit_fast                          0x0001d12f   Thumb Code   120  lwiplib.o(.text)
    tcp_input                                0x0001e44b   Thumb Code  1286  lwiplib.o(.text)
    udp_input                                0x0001e951   Thumb Code   592  lwiplib.o(.text)
    raw_input                                0x0001eba1   Thumb Code   156  lwiplib.o(.text)
    ip_input                                 0x0001ec3d   Thumb Code   688  lwiplib.o(.text)
    dhcp_arp_reply                           0x0001f1d1   Thumb Code    58  lwiplib.o(.text)
    etharp_cleanup_netif                     0x0001f5a7   Thumb Code    52  lwiplib.o(.text)
    netif_set_down                           0x0001f5db   Thumb Code    42  lwiplib.o(.text)
    autoip_start                             0x0001f605   Thumb Code   106  lwiplib.o(.text)
    etharp_raw                               0x0001f685   Thumb Code   228  lwiplib.o(.text)
    autoip_arp_reply                         0x0001f7c7   Thumb Code   154  lwiplib.o(.text)
    ethernet_input                           0x0001fa19   Thumb Code   226  lwiplib.o(.text)
    sys_timeouts_mbox_fetch                  0x0001fafb   Thumb Code   132  lwiplib.o(.text)
    tcpip_input                              0x0001fc55   Thumb Code    72  lwiplib.o(.text)
    tcpip_timeout                            0x0001fc9d   Thumb Code    64  lwiplib.o(.text)
    tcpip_untimeout                          0x0001fcdd   Thumb Code    56  lwiplib.o(.text)
    tcpip_callbackmsg_new                    0x0001fd15   Thumb Code    32  lwiplib.o(.text)
    tcpip_callbackmsg_delete                 0x0001fd35   Thumb Code    14  lwiplib.o(.text)
    tcpip_trycallback                        0x0001fd43   Thumb Code    28  lwiplib.o(.text)
    sys_thread_new                           0x0001fdc5   Thumb Code   198  lwiplib.o(.text)
    igmp_tmr                                 0x0001febb   Thumb Code    38  lwiplib.o(.text)
    igmp_report_groups                       0x0001fef9   Thumb Code    36  lwiplib.o(.text)
    etharp_request                           0x0001ff1d   Thumb Code    40  lwiplib.o(.text)
    netif_set_up                             0x0001ff45   Thumb Code    70  lwiplib.o(.text)
    netif_set_gw                             0x0001ff8b   Thumb Code    16  lwiplib.o(.text)
    netif_set_netmask                        0x0001ff9b   Thumb Code    16  lwiplib.o(.text)
    netif_set_ipaddr                         0x0001ffab   Thumb Code   136  lwiplib.o(.text)
    autoip_tmr                               0x0002008f   Thumb Code   332  lwiplib.o(.text)
    dhcp_release                             0x000203bb   Thumb Code   178  lwiplib.o(.text)
    dhcp_renew                               0x00020501   Thumb Code   150  lwiplib.o(.text)
    autoip_stop                              0x00020597   Thumb Code    20  lwiplib.o(.text)
    etharp_query                             0x000206cd   Thumb Code   386  lwiplib.o(.text)
    dhcp_fine_tmr                            0x00020a59   Thumb Code    68  lwiplib.o(.text)
    dhcp_coarse_tmr                          0x00020b21   Thumb Code    74  lwiplib.o(.text)
    etharp_tmr                               0x00020b85   Thumb Code   144  lwiplib.o(.text)
    sys_timeouts_init                        0x00020c2f   Thumb Code    60  lwiplib.o(.text)
    igmp_init                                0x00020c6b   Thumb Code    18  lwiplib.o(.text)
    tcp_init                                 0x00020c7d   Thumb Code     2  lwiplib.o(.text)
    udp_init                                 0x00020c7f   Thumb Code     2  lwiplib.o(.text)
    netif_init                               0x00020c81   Thumb Code     2  lwiplib.o(.text)
    memp_init                                0x00020c83   Thumb Code   138  lwiplib.o(.text)
    mem_init                                 0x00020d0d   Thumb Code   100  lwiplib.o(.text)
    sys_init                                 0x00020d71   Thumb Code    78  lwiplib.o(.text)
    stats_init                               0x00020dbf   Thumb Code    54  lwiplib.o(.text)
    lwip_init                                0x00020df5   Thumb Code    40  lwiplib.o(.text)
    tcpip_init                               0x00020e1d   Thumb Code    52  lwiplib.o(.text)
    pbuf_free_callback                       0x00020e5f   Thumb Code    16  lwiplib.o(.text)
    mem_free_callback                        0x00020e6f   Thumb Code    16  lwiplib.o(.text)
    dhcp_set_struct                          0x00020ffb   Thumb Code    30  lwiplib.o(.text)
    dhcp_cleanup                             0x00021019   Thumb Code    24  lwiplib.o(.text)
    dhcp_stop                                0x00021031   Thumb Code    78  lwiplib.o(.text)
    dhcp_start                               0x000214cf   Thumb Code   238  lwiplib.o(.text)
    dhcp_inform                              0x000215bd   Thumb Code   188  lwiplib.o(.text)
    dhcp_network_changed                     0x00021679   Thumb Code    96  lwiplib.o(.text)
    mem_calloc                               0x000216d9   Thumb Code    32  lwiplib.o(.text)
    igmp_start                               0x000216f9   Thumb Code    66  lwiplib.o(.text)
    netif_set_addr                           0x0002173b   Thumb Code    40  lwiplib.o(.text)
    netif_add                                0x00021763   Thumb Code   150  lwiplib.o(.text)
    netif_set_default                        0x000217f9   Thumb Code    10  lwiplib.o(.text)
    igmp_stop                                0x00021803   Thumb Code   130  lwiplib.o(.text)
    netif_remove                             0x00021885   Thumb Code   110  lwiplib.o(.text)
    netif_find                               0x000218f3   Thumb Code    72  lwiplib.o(.text)
    autoip_network_changed                   0x0002193b   Thumb Code    28  lwiplib.o(.text)
    netif_set_link_up                        0x00021957   Thumb Code    92  lwiplib.o(.text)
    netif_set_link_down                      0x000219b3   Thumb Code    24  lwiplib.o(.text)
    pbuf_dechain                             0x000219cb   Thumb Code    66  lwiplib.o(.text)
    pbuf_take                                0x00021a0d   Thumb Code   116  lwiplib.o(.text)
    pbuf_coalesce                            0x00021a81   Thumb Code    60  lwiplib.o(.text)
    pbuf_get_at                              0x00021abd   Thumb Code    46  lwiplib.o(.text)
    pbuf_memcmp                              0x00021aeb   Thumb Code    96  lwiplib.o(.text)
    pbuf_memfind                             0x00021b4b   Thumb Code    76  lwiplib.o(.text)
    pbuf_strstr                              0x00021b97   Thumb Code    60  lwiplib.o(.text)
    sys_msleep                               0x00021bd3   Thumb Code    36  lwiplib.o(.text)
    tcp_setprio                              0x00021bf7   Thumb Code     4  lwiplib.o(.text)
    tcp_debug_state_str                      0x00021bfb   Thumb Code    10  lwiplib.o(.text)
    autoip_set_struct                        0x00021c05   Thumb Code    40  lwiplib.o(.text)
    igmp_dump_group_list                     0x00021c2d   Thumb Code    30  lwiplib.o(.text)
    inet_chksum_pseudo                       0x00021c4b   Thumb Code   170  lwiplib.o(.text)
    inet_chksum_pseudo_partial               0x00021cf5   Thumb Code   192  lwiplib.o(.text)
    ip4_addr_netmask_valid                   0x00021db5   Thumb Code    52  lwiplib.o(.text)
    ipaddr_aton                              0x00021de9   Thumb Code   348  lwiplib.o(.text)
    ipaddr_addr                              0x00021f45   Thumb Code    24  lwiplib.o(.text)
    ipaddr_ntoa_r                            0x00021f5d   Thumb Code   168  lwiplib.o(.text)
    ipaddr_ntoa                              0x00022005   Thumb Code    24  lwiplib.o(.text)
    etharp_find_addr                         0x0002201d   Thumb Code    82  lwiplib.o(.text)
    etharp_output                            0x000220d7   Thumb Code   360  lwiplib.o(.text)
    perf_init                                0x0002223f   Thumb Code     2  lwiplib.o(.text)
    sys_now                                  0x00022241   Thumb Code     8  lwiplib.o(.text)
    InitDMADescriptors                       0x00022249   Thumb Code   314  lwiplib.o(.text)
    tivaif_init                              0x000228bb   Thumb Code    52  lwiplib.o(.text)
    tivaif_process_phy_interrupt             0x000228ef   Thumb Code   146  lwiplib.o(.text)
    tivaif_interrupt                         0x00022981   Thumb Code    78  lwiplib.o(.text)
    LwIP_DHCP_task                           0x00022aa3   Thumb Code   190  lwiplib.o(.text)
    lwIPInit                                 0x00022c15   Thumb Code   364  lwiplib.o(.text)
    lwIPTimerCallbackRegister                0x00022d81   Thumb Code     6  lwiplib.o(.text)
    lwIPEthernetIntHandler                   0x00022d87   Thumb Code    92  lwiplib.o(.text)
    lwIPLocalIPAddrGet                       0x00022de3   Thumb Code    18  lwiplib.o(.text)
    lwIPLocalNetMaskGet                      0x00022df5   Thumb Code     6  lwiplib.o(.text)
    lwIPLocalGWAddrGet                       0x00022dfb   Thumb Code     6  lwiplib.o(.text)
    lwIPLocalMACGet                          0x00022e01   Thumb Code    24  lwiplib.o(.text)
    lwIPNetworkConfigChange                  0x00022f09   Thumb Code    38  lwiplib.o(.text)
    get_cur_ip                               0x00022f2f   Thumb Code     6  lwiplib.o(.text)
    http_parse_request                       0x0002332d   Thumb Code   486  web.o(.text)
    web_task                                 0x00023645   Thumb Code   196  web.o(.text)
    clust2sect                               0x00025941   Thumb Code    26  ff.o(.text)
    get_fat                                  0x0002595b   Thumb Code   228  ff.o(.text)
    put_fat                                  0x00025a3f   Thumb Code   314  ff.o(.text)
    f_mount                                  0x000266ef   Thumb Code    38  ff.o(.text)
    f_open                                   0x00026715   Thumb Code   346  ff.o(.text)
    f_read                                   0x0002686f   Thumb Code   474  ff.o(.text)
    f_write                                  0x00026a49   Thumb Code   522  ff.o(.text)
    f_sync                                   0x00026c53   Thumb Code   174  ff.o(.text)
    f_close                                  0x00026d01   Thumb Code    22  ff.o(.text)
    f_lseek                                  0x00026d17   Thumb Code   430  ff.o(.text)
    f_opendir                                0x00026ec5   Thumb Code   112  ff.o(.text)
    f_readdir                                0x00026f35   Thumb Code    88  ff.o(.text)
    f_stat                                   0x00026f8d   Thumb Code    58  ff.o(.text)
    f_getfree                                0x00026fc7   Thumb Code   260  ff.o(.text)
    f_truncate                               0x000270cb   Thumb Code   154  ff.o(.text)
    f_unlink                                 0x00027165   Thumb Code   170  ff.o(.text)
    f_mkdir                                  0x0002720f   Thumb Code   352  ff.o(.text)
    f_chmod                                  0x0002736f   Thumb Code    84  ff.o(.text)
    f_utime                                  0x000273c3   Thumb Code    86  ff.o(.text)
    f_rename                                 0x00027419   Thumb Code   276  ff.o(.text)
    disk_initialize                          0x000278b9   Thumb Code   406  mmc-dk-tm4c129x.o(.text)
    disk_status                              0x00027a4f   Thumb Code    14  mmc-dk-tm4c129x.o(.text)
    disk_read                                0x00027a5d   Thumb Code   142  mmc-dk-tm4c129x.o(.text)
    disk_write                               0x00027aeb   Thumb Code   188  mmc-dk-tm4c129x.o(.text)
    disk_ioctl                               0x00027ba7   Thumb Code   420  mmc-dk-tm4c129x.o(.text)
    disk_timerproc                           0x00027d4b   Thumb Code    50  mmc-dk-tm4c129x.o(.text)
    get_fattime                              0x00027d7d   Thumb Code     4  mmc-dk-tm4c129x.o(.text)
    CheckNetmask                             0x00027d85   Thumb Code    52  netconf.o(.text)
    Localhost                                0x00027db9   Thumb Code    16  netconf.o(.text)
    SetLocalhost                             0x00027dc9   Thumb Code    14  netconf.o(.text)
    GetPrimaryDNS                            0x00027dd7   Thumb Code    16  netconf.o(.text)
    SetDNS                                   0x00027de7   Thumb Code    18  netconf.o(.text)
    GetNetMask                               0x00027df9   Thumb Code    40  netconf.o(.text)
    SetNetMask                               0x00027e21   Thumb Code    14  netconf.o(.text)
    GetGateway                               0x00027e2f   Thumb Code    16  netconf.o(.text)
    SetGateway                               0x00027e3f   Thumb Code    14  netconf.o(.text)
    GetSecondaryDNS                          0x00027e4d   Thumb Code    16  netconf.o(.text)
    GetHostName                              0x00027e5d   Thumb Code     4  netconf.o(.text)
    SetHostName                              0x00027e61   Thumb Code    44  netconf.o(.text)
    htoa                                     0x00027e8d   Thumb Code    12  netconf.o(.text)
    __rt_ctype_table                         0x00027e9d   Thumb Code    16  rt_ctype_table.o(.text)
    vsprintf                                 0x00027ead   Thumb Code    32  vsprintf.o(.text)
    _printf_pre_padding                      0x00027ed1   Thumb Code    46  _printf_pad.o(.text)
    _printf_post_padding                     0x00027eff   Thumb Code    36  _printf_pad.o(.text)
    _printf_truncate_signed                  0x00027f23   Thumb Code    18  _printf_truncate.o(.text)
    _printf_truncate_unsigned                0x00027f35   Thumb Code    18  _printf_truncate.o(.text)
    _printf_str                              0x00027f47   Thumb Code    82  _printf_str.o(.text)
    _printf_int_dec                          0x00027f99   Thumb Code   102  _printf_dec.o(.text)
    _printf_charcount                        0x00028011   Thumb Code    42  _printf_charcount.o(.text)
    _printf_wctomb                           0x0002803d   Thumb Code   182  _printf_wctomb.o(.text)
    _printf_longlong_oct                     0x000280f9   Thumb Code    76  _printf_oct_int_ll.o(.text)
    _printf_int_oct                          0x00028145   Thumb Code    24  _printf_oct_int_ll.o(.text)
    _printf_ll_oct                           0x0002815d   Thumb Code    12  _printf_oct_int_ll.o(.text)
    _printf_longlong_hex                     0x00028171   Thumb Code    92  _printf_hex_int_ll_ptr.o(.text)
    _printf_int_hex                          0x000281cd   Thumb Code    28  _printf_hex_int_ll_ptr.o(.text)
    _printf_ll_hex                           0x000281e9   Thumb Code    12  _printf_hex_int_ll_ptr.o(.text)
    _printf_hex_ptr                          0x000281f5   Thumb Code    18  _printf_hex_int_ll_ptr.o(.text)
    __printf                                 0x0002820d   Thumb Code   390  __printf_flags_ss_wp.o(.text)
    __0sscanf                                0x00028399   Thumb Code    52  __0sscanf.o(.text)
    _scanf_int                               0x000283d5   Thumb Code   336  _scanf_int.o(.text)
    atoi                                     0x00028525   Thumb Code    26  atoi.o(.text)
    srand                                    0x00028541   Thumb Code    42  rand.o(.text)
    _rand_init                               0x0002856b   Thumb Code     4  rand.o(.text)
    strtok                                   0x0002857d   Thumb Code     6  strtok.o(.text)
    strchr                                   0x00028589   Thumb Code    20  strchr.o(.text)
    strstr                                   0x0002859d   Thumb Code    36  strstr.o(.text)
    memcmp                                   0x000285c1   Thumb Code    88  memcmp.o(.text)
    strlen                                   0x00028619   Thumb Code    62  strlen.o(.text)
    strncmp                                  0x00028657   Thumb Code   150  strncmp.o(.text)
    strcat                                   0x000286ed   Thumb Code    24  strcat.o(.text)
    __aeabi_memcpy                           0x00028705   Thumb Code     0  rt_memcpy_v6.o(.text)
    __rt_memcpy                              0x00028705   Thumb Code   138  rt_memcpy_v6.o(.text)
    _memcpy_lastbytes                        0x0002876b   Thumb Code     0  rt_memcpy_v6.o(.text)
    __aeabi_memcpy4                          0x0002878f   Thumb Code     0  rt_memcpy_w.o(.text)
    __aeabi_memcpy8                          0x0002878f   Thumb Code     0  rt_memcpy_w.o(.text)
    __rt_memcpy_w                            0x0002878f   Thumb Code   100  rt_memcpy_w.o(.text)
    _memcpy_lastbytes_aligned                0x000287d7   Thumb Code     0  rt_memcpy_w.o(.text)
    __aeabi_memset                           0x000287f3   Thumb Code    16  aeabi_memset.o(.text)
    __aeabi_memclr                           0x00028803   Thumb Code     0  rt_memclr.o(.text)
    __rt_memclr                              0x00028803   Thumb Code    68  rt_memclr.o(.text)
    _memset                                  0x00028807   Thumb Code     0  rt_memclr.o(.text)
    __aeabi_memclr4                          0x00028847   Thumb Code     0  rt_memclr_w.o(.text)
    __aeabi_memclr8                          0x00028847   Thumb Code     0  rt_memclr_w.o(.text)
    __rt_memclr_w                            0x00028847   Thumb Code    78  rt_memclr_w.o(.text)
    _memset_w                                0x0002884b   Thumb Code     0  rt_memclr_w.o(.text)
    strcmp                                   0x00028895   Thumb Code   128  strcmpv7m.o(.text)
    __use_two_region_memory                  0x00028915   Thumb Code     2  heapauxi.o(.text)
    __rt_heap_escrow$2region                 0x00028917   Thumb Code     2  heapauxi.o(.text)
    __rt_heap_expand$2region                 0x00028919   Thumb Code     2  heapauxi.o(.text)
    __rt_locale                              0x0002891d   Thumb Code     8  rt_locale_intlibspace.o(.text)
    __aeabi_errno_addr                       0x00028925   Thumb Code     8  rt_errno_addr_intlibspace.o(.text)
    __errno$intlibspace                      0x00028925   Thumb Code     0  rt_errno_addr_intlibspace.o(.text)
    __rt_errno_addr$intlibspace              0x00028925   Thumb Code     0  rt_errno_addr_intlibspace.o(.text)
    _printf_int_common                       0x0002892d   Thumb Code   184  _printf_intcommon.o(.text)
    _printf_char_common                      0x000289ef   Thumb Code    32  _printf_char_common.o(.text)
    _sputc                                   0x00028a15   Thumb Code    10  _sputc.o(.text)
    _printf_cs_common                        0x00028a1f   Thumb Code    20  _printf_char.o(.text)
    _printf_char                             0x00028a33   Thumb Code    16  _printf_char.o(.text)
    _printf_string                           0x00028a43   Thumb Code     8  _printf_char.o(.text)
    _printf_lcs_common                       0x00028a4b   Thumb Code    20  _printf_wchar.o(.text)
    _printf_wchar                            0x00028a5f   Thumb Code    16  _printf_wchar.o(.text)
    _printf_wstring                          0x00028a6f   Thumb Code     8  _printf_wchar.o(.text)
    _printf_longlong_dec                     0x00028a79   Thumb Code   104  _printf_longlong_dec.o(.text)
    _chval                                   0x00028af1   Thumb Code    28  _chval.o(.text)
    __vfscanf_char                           0x00028b19   Thumb Code    24  scanf_char.o(.text)
    _sgetc                                   0x00028b39   Thumb Code    30  _sgetc.o(.text)
    _sbackspace                              0x00028b57   Thumb Code    34  _sgetc.o(.text)
    strtol                                   0x00028b79   Thumb Code   112  strtol.o(.text)
    _wcrtomb                                 0x00028be9   Thumb Code    64  _wcrtomb.o(.text)
    __strtok_internal                        0x00028c29   Thumb Code    64  strtok_int.o(.text)
    __user_libspace                          0x00028c6d   Thumb Code     8  libspace.o(.text)
    __user_perproc_libspace                  0x00028c6d   Thumb Code     0  libspace.o(.text)
    __user_perthread_libspace                0x00028c6d   Thumb Code     0  libspace.o(.text)
    _ll_udiv10                               0x00028c75   Thumb Code   138  lludiv10.o(.text)
    isspace                                  0x00028cff   Thumb Code    18  isspace.o(.text)
    __lib_sel_fp_printf                      0x00028d11   Thumb Code     2  _printf_fp_dec.o(.text)
    _printf_fp_dec_real                      0x00028ebd   Thumb Code   628  _printf_fp_dec.o(.text)
    _printf_fp_hex_real                      0x00029131   Thumb Code   760  _printf_fp_hex.o(.text)
    __vfscanf                                0x00029431   Thumb Code   876  _scanf.o(.text)
    _strtoul                                 0x000297a1   Thumb Code   158  _strtoul.o(.text)
    strcspn                                  0x0002983f   Thumb Code    32  strcspn.o(.text)
    strspn                                   0x0002985f   Thumb Code    28  strspn.o(.text)
    __user_setup_stackheap                   0x0002987b   Thumb Code    74  sys_stackheap_outer.o(.text)
    _printf_fp_infnan                        0x000298c5   Thumb Code   112  _printf_fp_infnan.o(.text)
    _btod_etento                             0x00029945   Thumb Code   222  bigflt0.o(.text)
    exit                                     0x00029a29   Thumb Code    12  exit.o(.text)
    __I$use$semihosting                      0x00029a35   Thumb Code     0  use_no_semi.o(.text)
    __use_no_semihosting_swi                 0x00029a35   Thumb Code     2  use_no_semi.o(.text)
    __semihosting_library_function           0x00029a37   Thumb Code     0  indicate_semi.o(.text)
    _sys_exit                                0x00029a39   Thumb Code     8  sys_exit.o(.text)
    _btod_d2e                                0x00029a45   Thumb Code    62  btod.o(CL$$btod_d2e)
    _d2e_denorm_low                          0x00029a83   Thumb Code    70  btod.o(CL$$btod_d2e_denorm_low)
    _d2e_norm_op1                            0x00029ac9   Thumb Code    96  btod.o(CL$$btod_d2e_norm_op1)
    __btod_div_common                        0x00029b29   Thumb Code   696  btod.o(CL$$btod_div_common)
    _e2e                                     0x00029e61   Thumb Code   198  btod.o(CL$$btod_e2e)
    _btod_ediv                               0x00029f27   Thumb Code    40  btod.o(CL$$btod_ediv)
    _btod_emul                               0x00029f4f   Thumb Code    40  btod.o(CL$$btod_emul)
    __btod_mult_common                       0x00029f77   Thumb Code   580  btod.o(CL$$btod_mult_common)
    EMACAddrGet                              0x0002a1bb   Thumb Code    30  emac.o(i.EMACAddrGet)
    EMACAddrSet                              0x0002a1d9   Thumb Code    34  emac.o(i.EMACAddrSet)
    EMACConfigGet                            0x0002a1fd   Thumb Code    62  emac.o(i.EMACConfigGet)
    EMACConfigSet                            0x0002a241   Thumb Code    50  emac.o(i.EMACConfigSet)
    EMACFrameFilterSet                       0x0002a279   Thumb Code    12  emac.o(i.EMACFrameFilterSet)
    EMACInit                                 0x0002a289   Thumb Code   126  emac.o(i.EMACInit)
    EMACIntClear                             0x0002a311   Thumb Code    62  emac.o(i.EMACIntClear)
    EMACIntDisable                           0x0002a34f   Thumb Code    62  emac.o(i.EMACIntDisable)
    EMACIntEnable                            0x0002a38d   Thumb Code    70  emac.o(i.EMACIntEnable)
    EMACIntStatus                            0x0002a3d3   Thumb Code    46  emac.o(i.EMACIntStatus)
    EMACPHYConfigSet                         0x0002a401   Thumb Code   118  emac.o(i.EMACPHYConfigSet)
    EMACPHYRead                              0x0002a489   Thumb Code    42  emac.o(i.EMACPHYRead)
    EMACPHYWrite                             0x0002a4b3   Thumb Code    42  emac.o(i.EMACPHYWrite)
    EMACRxDMADescriptorListSet               0x0002a4dd   Thumb Code     6  emac.o(i.EMACRxDMADescriptorListSet)
    EMACRxEnable                             0x0002a4e3   Thumb Code    22  emac.o(i.EMACRxEnable)
    EMACTimestampIntStatus                   0x0002a4f9   Thumb Code     6  emac.o(i.EMACTimestampIntStatus)
    EMACTxDMADescriptorListSet               0x0002a4ff   Thumb Code     6  emac.o(i.EMACTxDMADescriptorListSet)
    EMACTxDMAPollDemand                      0x0002a505   Thumb Code     8  emac.o(i.EMACTxDMAPollDemand)
    EMACTxEnable                             0x0002a50d   Thumb Code    22  emac.o(i.EMACTxEnable)
    GPIODirModeSet                           0x0002a523   Thumb Code    40  gpio.o(i.GPIODirModeSet)
    GPIOIntClear                             0x0002a54b   Thumb Code     6  gpio.o(i.GPIOIntClear)
    GPIOIntEnable                            0x0002a551   Thumb Code    14  gpio.o(i.GPIOIntEnable)
    GPIOIntStatus                            0x0002a55f   Thumb Code    14  gpio.o(i.GPIOIntStatus)
    GPIOIntTypeSet                           0x0002a56d   Thumb Code    80  gpio.o(i.GPIOIntTypeSet)
    GPIOPadConfigSet                         0x0002a5bd   Thumb Code   318  gpio.o(i.GPIOPadConfigSet)
    GPIOPinConfigure                         0x0002a6fd   Thumb Code    64  gpio.o(i.GPIOPinConfigure)
    GPIOPinRead                              0x0002a745   Thumb Code     6  gpio.o(i.GPIOPinRead)
    GPIOPinTypeEthernetLED                   0x0002a74b   Thumb Code    28  gpio.o(i.GPIOPinTypeEthernetLED)
    GPIOPinTypeGPIOInput                     0x0002a767   Thumb Code    28  gpio.o(i.GPIOPinTypeGPIOInput)
    GPIOPinTypeGPIOOutput                    0x0002a783   Thumb Code    28  gpio.o(i.GPIOPinTypeGPIOOutput)
    GPIOPinTypePWM                           0x0002a79f   Thumb Code    28  gpio.o(i.GPIOPinTypePWM)
    GPIOPinTypeUART                          0x0002a7bb   Thumb Code    28  gpio.o(i.GPIOPinTypeUART)
    GPIOPinWrite                             0x0002a7d7   Thumb Code     6  gpio.o(i.GPIOPinWrite)
    IntDisable                               0x0002a7dd   Thumb Code    92  interrupt.o(i.IntDisable)
    IntEnable                                0x0002a841   Thumb Code    92  interrupt.o(i.IntEnable)
    IntMasterEnable                          0x0002a8a5   Thumb Code    14  interrupt.o(i.IntMasterEnable)
    IntPrioritySet                           0x0002a8b5   Thumb Code    36  interrupt.o(i.IntPrioritySet)
    PWMClockSet                              0x0002a8dd   Thumb Code    22  pwm.o(i.PWMClockSet)
    PWMGenConfigure                          0x0002a8f3   Thumb Code    38  pwm.o(i.PWMGenConfigure)
    PWMGenEnable                             0x0002a919   Thumb Code    10  pwm.o(i.PWMGenEnable)
    PWMGenPeriodGet                          0x0002a923   Thumb Code    18  pwm.o(i.PWMGenPeriodGet)
    PWMGenPeriodSet                          0x0002a935   Thumb Code    18  pwm.o(i.PWMGenPeriodSet)
    PWMOutputState                           0x0002a947   Thumb Code    16  pwm.o(i.PWMOutputState)
    PWMPulseWidthSet                         0x0002a957   Thumb Code    32  pwm.o(i.PWMPulseWidthSet)
    SysCtlClockFreqSet                       0x0002a979   Thumb Code   672  sysctl.o(i.SysCtlClockFreqSet)
    SysCtlDeepSleep                          0x0002ac41   Thumb Code    26  sysctl.o(i.SysCtlDeepSleep)
    SysCtlPeripheralEnable                   0x0002ac61   Thumb Code    36  sysctl.o(i.SysCtlPeripheralEnable)
    SysCtlPeripheralPresent                  0x0002ac89   Thumb Code    40  sysctl.o(i.SysCtlPeripheralPresent)
    SysCtlPeripheralReady                    0x0002acb5   Thumb Code    40  sysctl.o(i.SysCtlPeripheralReady)
    SysCtlPeripheralReset                    0x0002ace1   Thumb Code    56  sysctl.o(i.SysCtlPeripheralReset)
    TimerConfigure                           0x0002ad1d   Thumb Code    88  timer.o(i.TimerConfigure)
    TimerEnable                              0x0002ad7d   Thumb Code    14  timer.o(i.TimerEnable)
    TimerIntClear                            0x0002ad8b   Thumb Code     4  timer.o(i.TimerIntClear)
    TimerIntEnable                           0x0002ad8f   Thumb Code     8  timer.o(i.TimerIntEnable)
    TimerLoadSet                             0x0002ad97   Thumb Code    18  timer.o(i.TimerLoadSet)
    TimerValueGet                            0x0002ada9   Thumb Code    10  timer.o(i.TimerValueGet)
    UARTCharGetNonBlocking                   0x0002adb3   Thumb Code    16  uart.o(i.UARTCharGetNonBlocking)
    UARTCharPutNonBlocking                   0x0002adc3   Thumb Code    16  uart.o(i.UARTCharPutNonBlocking)
    UARTCharsAvail                           0x0002add3   Thumb Code    10  uart.o(i.UARTCharsAvail)
    UARTConfigSetExpClk                      0x0002addd   Thumb Code   110  uart.o(i.UARTConfigSetExpClk)
    UARTEnable                               0x0002ae4b   Thumb Code    20  uart.o(i.UARTEnable)
    UARTIntClear                             0x0002ae5f   Thumb Code     4  uart.o(i.UARTIntClear)
    UARTIntEnable                            0x0002ae63   Thumb Code     8  uart.o(i.UARTIntEnable)
    UARTIntStatus                            0x0002ae6b   Thumb Code    10  uart.o(i.UARTIntStatus)
    WatchdogEnable                           0x0002ae75   Thumb Code    10  watchdog.o(i.WatchdogEnable)
    WatchdogReloadSet                        0x0002ae7f   Thumb Code     4  watchdog.o(i.WatchdogReloadSet)
    WatchdogResetEnable                      0x0002ae83   Thumb Code    10  watchdog.o(i.WatchdogResetEnable)
    __ARM_fpclassify                         0x0002ae8d   Thumb Code    48  fpclassify.o(i.__ARM_fpclassify)
    _is_digit                                0x0002aebd   Thumb Code    14  __printf_wp.o(i._is_digit)
    _get_lc_ctype                            0x0002aecd   Thumb Code    44  lc_ctype_c.o(locale$$code)
    _get_lc_numeric                          0x0002aef9   Thumb Code    44  lc_numeric_c.o(locale$$code)
    __aeabi_d2f                              0x0002af25   Thumb Code     0  d2f.o(x$fpl$d2f)
    _d2f                                     0x0002af25   Thumb Code    98  d2f.o(x$fpl$d2f)
    __aeabi_ddiv                             0x0002af89   Thumb Code     0  ddiv.o(x$fpl$ddiv)
    _ddiv                                    0x0002af89   Thumb Code   552  ddiv.o(x$fpl$ddiv)
    __aeabi_i2d                              0x0002b239   Thumb Code     0  dflt_clz.o(x$fpl$dflt)
    _dflt                                    0x0002b239   Thumb Code    46  dflt_clz.o(x$fpl$dflt)
    __aeabi_ui2d                             0x0002b267   Thumb Code     0  dflt_clz.o(x$fpl$dfltu)
    _dfltu                                   0x0002b267   Thumb Code    38  dflt_clz.o(x$fpl$dfltu)
    __fpl_dnaninf                            0x0002b28d   Thumb Code   156  dnaninf.o(x$fpl$dnaninf)
    __fpl_dretinf                            0x0002b329   Thumb Code    12  dretinf.o(x$fpl$dretinf)
    __aeabi_f2d                              0x0002b335   Thumb Code     0  f2d.o(x$fpl$f2d)
    _f2d                                     0x0002b335   Thumb Code    86  f2d.o(x$fpl$f2d)
    __fpl_fnaninf                            0x0002b38b   Thumb Code   140  fnaninf.o(x$fpl$fnaninf)
    _fp_init                                 0x0002b417   Thumb Code    10  fpinit.o(x$fpl$fpinit)
    __fplib_config_fpu_vfp                   0x0002b41f   Thumb Code     0  fpinit.o(x$fpl$fpinit)
    __fplib_config_pureend_doubles           0x0002b41f   Thumb Code     0  fpinit.o(x$fpl$fpinit)
    __fpl_fretinf                            0x0002b421   Thumb Code    10  fretinf.o(x$fpl$fretinf)
    _printf_fp_dec                           0x0002b42b   Thumb Code     4  printf1.o(x$fpl$printf1)
    _printf_fp_hex                           0x0002b42f   Thumb Code     4  printf2.o(x$fpl$printf2)
    __I$use$fp                               0x0002b432   Number         0  usenofp.o(x$fpl$usenofp)
    c_master_gain                            0x0002b8d4   Data         216  dsp_app.o(.constdata)
    filter_12db                              0x0002b9ac   Data         852  dsp_app.o(.constdata)
    filter_24db                              0x0002bd00   Data        1704  dsp_app.o(.constdata)
    filter_48db                              0x0002c3a8   Data        3408  dsp_app.o(.constdata)
    c_eq_gain                                0x0002d0f8   Data         136  dsp_app.o(.constdata)
    c_ulEqQFractionTbl                       0x0002d180   Data          40  dsp_app.o(.constdata)
    sub_name                                 0x0002d7a8   Data          52  display_task.o(.constdata)
    file_update_htm                          0x000882f8   Data          20  enet_fs.o(.constdata)
    file_setup_htm                           0x0008830c   Data          20  enet_fs.o(.constdata)
    file_roomEQ_htm                          0x00088320   Data          20  enet_fs.o(.constdata)
    file_readme_txt                          0x00088334   Data          20  enet_fs.o(.constdata)
    file_preset_htm                          0x00088348   Data          20  enet_fs.o(.constdata)
    file_js_triadcomm_js                     0x0008835c   Data          20  enet_fs.o(.constdata)
    file_js_tmpl_js                          0x00088370   Data          20  enet_fs.o(.constdata)
    file_js_jshashtable_2_1_src_js           0x00088384   Data          20  enet_fs.o(.constdata)
    file_js_jquery_slider_js                 0x00088398   Data          20  enet_fs.o(.constdata)
    file_js_jquery_numberformatter_1_2_3_js  0x000883ac   Data          20  enet_fs.o(.constdata)
    file_js_jquery_dependClass_0_1_js        0x000883c0   Data          20  enet_fs.o(.constdata)
    file_js_fun_min_js                       0x000883d4   Data          20  enet_fs.o(.constdata)
    file_js_draggable_0_1_js                 0x000883e8   Data          20  enet_fs.o(.constdata)
    file_ipConfig_htm                        0x000883fc   Data          20  enet_fs.o(.constdata)
    file_img_jslider_round_png               0x00088410   Data          20  enet_fs.o(.constdata)
    file_img_jslider_round_plastic_png       0x00088424   Data          20  enet_fs.o(.constdata)
    file_img_jslider_png                     0x00088438   Data          20  enet_fs.o(.constdata)
    file_img_jslider_plastic_png             0x0008844c   Data          20  enet_fs.o(.constdata)
    file_img_jslider_blue_png                0x00088460   Data          20  enet_fs.o(.constdata)
    file_images_screen_btn_png               0x00088474   Data          20  enet_fs.o(.constdata)
    file_images_logo_png                     0x00088488   Data          20  enet_fs.o(.constdata)
    file_images_info_gif                     0x0008849c   Data          20  enet_fs.o(.constdata)
    file_images_header_bar_bg_png            0x000884b0   Data          20  enet_fs.o(.constdata)
    file_images_file_btn_png                 0x000884c4   Data          20  enet_fs.o(.constdata)
    file_images_EQ_bg_png                    0x000884d8   Data          20  enet_fs.o(.constdata)
    file_home_htm                            0x000884ec   Data          20  enet_fs.o(.constdata)
    file_css_jslider_plastic_css             0x00088500   Data          20  enet_fs.o(.constdata)
    file_css_jslider_css                     0x00088514   Data          20  enet_fs.o(.constdata)
    file_Config_htm                          0x00088528   Data          20  enet_fs.o(.constdata)
    file_about_htm                           0x0008853c   Data          20  enet_fs.o(.constdata)
    tcp_state_str                            0x00088584   Data          44  lwiplib.o(.constdata)
    tcp_backoff                              0x000885b0   Data          13  lwiplib.o(.constdata)
    tcp_persist_backoff                      0x000885bd   Data           7  lwiplib.o(.constdata)
    tcp_pcb_lists                            0x000885c4   Data          16  lwiplib.o(.constdata)
    ip_addr_any                              0x000885d4   Data           4  lwiplib.o(.constdata)
    ip_addr_broadcast                        0x000885d8   Data           4  lwiplib.o(.constdata)
    ethbroadcast                             0x000885dc   Data           6  lwiplib.o(.constdata)
    ethzero                                  0x000885e2   Data           6  lwiplib.o(.constdata)
    g_pCGI                                   0x00088818   Data           8  web.o(.constdata)
    Region$$Table$$Base                      0x00089ec0   Number         0  anon$$obj.o(Region$$Table)
    Region$$Table$$Limit                     0x00089ee0   Number         0  anon$$obj.o(Region$$Table)
    __ctype                                  0x00089eed   Data           0  lc_ctype_c.o(locale$$data)
    Load$$INIT_SECTION$$Base                 0x0008a00c   Number         0  anon$$obj.o ABSOLUTE
    __init_cmd_help                          0x0008a00c   Data          16  osal_console.o(INIT_CMD)
    __init_cmd_lcd                           0x0008a01c   Data          16  system_task.o(INIT_CMD)
    __init_cmd_list_create                   0x0008a02c   Data          16  display_task.o(INIT_CMD)
    __init_cmd_list_next                     0x0008a03c   Data          16  display_task.o(INIT_CMD)
    __init_cmd_list_prev                     0x0008a04c   Data          16  display_task.o(INIT_CMD)
    __init_cmd_list_enter                    0x0008a05c   Data          16  display_task.o(INIT_CMD)
    __init_cmd_dis                           0x0008a06c   Data          16  display_task.o(INIT_CMD)
    __init_cmd_eppw                          0x0008a07c   Data          16  eprom_driver.o(INIT_CMD)
    __init_cmd_eppr                          0x0008a08c   Data          16  eprom_driver.o(INIT_CMD)
    __init_cmd_clk                           0x0008a09c   Data          16  njw1195_driver.o(INIT_CMD)
    pxCurrentTCB                             0x20000004   Data           4  tasks.o(.data)
    version                                  0x20000058   Data           4  main.o(.data)
    gSysClock                                0x2000005c   Data           4  main.o(.data)
    keylist                                  0x20000064   Data         168  keyboard.o(.data)
    gCode                                    0x2000010c   Data           3  keyboard.o(.data)
    ring_list                                0x20000124   Data          12  osal_ringbuf.o(.data)
    detectlist                               0x20000130   Data         160  osal_detect.o(.data)
    gEqTemp                                  0x200001d0   Data          20  system_task.o(.data)
    gSysQueue                                0x200001f0   Data           4  system_task.o(.data)
    gSystem_t                                0x200001f4   Data           4  system_task.o(.data)
    gIrOutputCmd                             0x200001f8   Data           1  system_task.o(.data)
    gDisQueue                                0x20000200   Data           4  display_task.o(.data)
    gMenuHead                                0x20000204   Data           4  display_task.o(.data)
    cur_menu                                 0x20000208   Data           4  display_task.o(.data)
    last_menu                                0x2000020c   Data           4  display_task.o(.data)
    ir_commond                               0x20000252   Data          19  ir_driver.o(.data)
    repeat_commond                           0x20000265   Data           1  ir_driver.o(.data)
    repeat_thres                             0x20000266   Data           1  ir_driver.o(.data)
    gIr_timeout                              0x20000268   Data           2  ir_driver.o(.data)
    g_TxDescList                             0x200002e8   Data          16  lwiplib.o(.data)
    g_RxDescList                             0x200002f8   Data          16  lwiplib.o(.data)
    netif_list                               0x20000340   Data           4  lwiplib.o(.data)
    netif_default                            0x20000344   Data           4  lwiplib.o(.data)
    pbuf_free_ooseq_pending                  0x20000349   Data           1  lwiplib.o(.data)
    tcp_ticks                                0x20000350   Data           4  lwiplib.o(.data)
    tcp_bound_pcbs                           0x20000354   Data           4  lwiplib.o(.data)
    tcp_listen_pcbs                          0x20000358   Data           4  lwiplib.o(.data)
    tcp_active_pcbs                          0x2000035c   Data           4  lwiplib.o(.data)
    tcp_tw_pcbs                              0x20000360   Data           4  lwiplib.o(.data)
    tcp_tmp_pcb                              0x20000364   Data           4  lwiplib.o(.data)
    tcp_active_pcbs_changed                  0x20000368   Data           1  lwiplib.o(.data)
    tcp_input_pcb                            0x20000388   Data           4  lwiplib.o(.data)
    udp_pcbs                                 0x20000394   Data           4  lwiplib.o(.data)
    current_netif                            0x200003a4   Data           4  lwiplib.o(.data)
    current_header                           0x200003a8   Data           4  lwiplib.o(.data)
    current_iphdr_src                        0x200003ac   Data           4  lwiplib.o(.data)
    current_iphdr_dest                       0x200003b0   Data           4  lwiplib.o(.data)
    g_ui32NormalInts                         0x200003b8   Data           4  lwiplib.o(.data)
    g_ui32AbnormalInts                       0x200003bc   Data           4  lwiplib.o(.data)
    g_pfnTimerHandler                        0x200003c0   Data           4  lwiplib.o(.data)
    g_Page_CGI                               0x200003d4   Data          56  web.o(.data)
    g_MACArray                               0x20000410   Data           6  web.o(.data)
    g_NumCGI                                 0x20000418   Data           4  web.o(.data)
    xQueueRegistry                           0x2000042c   Data          80  queue.o(.bss)
    console                                  0x2000b628   Data         524  serial.o(.bss)
    gSystem_last                             0x2000b834   Data          84  system_task.o(.bss)
    ir_front                                 0x2000b990   Data         524  ir_driver.o(.bss)
    ir_in                                    0x2000bb9c   Data         524  ir_driver.o(.bss)
    dhcp_rx_options_val                      0x2000c08c   Data          40  lwiplib.o(.bss)
    dhcp_rx_options_given                    0x2000c0b4   Data          10  lwiplib.o(.bss)
    ram_heap                                 0x2000c0be   Data       65564  lwiplib.o(.bss)
    lwip_stats                               0x20024cb0   Data         472  lwiplib.o(.bss)
    g_sDriverStats                           0x20025930   Data          44  lwiplib.o(.bss)
    g_pTxDescriptors                         0x2002595c   Data         864  lwiplib.o(.bss)
    g_pRxDescriptors                         0x20025cbc   Data         288  lwiplib.o(.bss)
    net_context                              0x20027018   Data          88  netconf.o(.bss)
    _random_number_data                      0x20027070   Data         228  rand.o(.bss)
    __libspace_start                         0x20027154   Data          96  libspace.o(.bss)
    __temporary_stack_top$libspace           0x200271b4   Data           0  libspace.o(.bss)



==============================================================================

Memory Map of the image

  Image Entry point : 0x0000d21d

  Load Region LR_IROM1 (Base: 0x0000d000, Size: 0x0007d4d8, Max: 0x000f3000, ABSOLUTE, COMPRESSED[0x0007d264])

    Execution Region ER_IROM1 (Base: 0x0000d000, Size: 0x0007d00c, Max: 0x000f3000, ABSOLUTE)

    Base Addr    Size         Type   Attr      Idx    E Section Name        Object

    0x0000d000   0x0000021c   Code   RO            3    RESET               startup_rvmdk.o
    0x0000d21c   0x00000008   Code   RO         3893  * !!!main             c_w.l(__main.o)
    0x0000d224   0x00000034   Code   RO         4185    !!!scatter          c_w.l(__scatter.o)
    0x0000d258   0x0000005a   Code   RO         4183    !!dczerorl2         c_w.l(__dczerorl2.o)
    0x0000d2b2   0x00000002   PAD
    0x0000d2b4   0x0000001c   Code   RO         4187    !!handler_zi        c_w.l(__scatter_zi.o)
    0x0000d2d0   0x00000000   Code   RO         3845    .ARM.Collect$$_printf_percent$$00000000  c_w.l(_printf_percent.o)
    0x0000d2d0   0x00000006   Code   RO         3838    .ARM.Collect$$_printf_percent$$00000001  c_w.l(_printf_n.o)
    0x0000d2d6   0x00000006   Code   RO         3840    .ARM.Collect$$_printf_percent$$00000002  c_w.l(_printf_p.o)
    0x0000d2dc   0x00000006   Code   RO         3934    .ARM.Collect$$_printf_percent$$00000003  c_w.l(_printf_f.o)
    0x0000d2e2   0x00000006   Code   RO         3935    .ARM.Collect$$_printf_percent$$00000004  c_w.l(_printf_e.o)
    0x0000d2e8   0x00000006   Code   RO         3936    .ARM.Collect$$_printf_percent$$00000005  c_w.l(_printf_g.o)
    0x0000d2ee   0x00000006   Code   RO         3937    .ARM.Collect$$_printf_percent$$00000006  c_w.l(_printf_a.o)
    0x0000d2f4   0x0000000a   Code   RO         3942    .ARM.Collect$$_printf_percent$$00000007  c_w.l(_printf_ll.o)
    0x0000d2fe   0x00000006   Code   RO         3842    .ARM.Collect$$_printf_percent$$00000008  c_w.l(_printf_i.o)
    0x0000d304   0x00000006   Code   RO         3843    .ARM.Collect$$_printf_percent$$00000009  c_w.l(_printf_d.o)
    0x0000d30a   0x00000006   Code   RO         3844    .ARM.Collect$$_printf_percent$$0000000A  c_w.l(_printf_u.o)
    0x0000d310   0x00000006   Code   RO         3841    .ARM.Collect$$_printf_percent$$0000000B  c_w.l(_printf_o.o)
    0x0000d316   0x00000006   Code   RO         3839    .ARM.Collect$$_printf_percent$$0000000C  c_w.l(_printf_x.o)
    0x0000d31c   0x00000006   Code   RO         3939    .ARM.Collect$$_printf_percent$$0000000D  c_w.l(_printf_lli.o)
    0x0000d322   0x00000006   Code   RO         3940    .ARM.Collect$$_printf_percent$$0000000E  c_w.l(_printf_lld.o)
    0x0000d328   0x00000006   Code   RO         3941    .ARM.Collect$$_printf_percent$$0000000F  c_w.l(_printf_llu.o)
    0x0000d32e   0x00000006   Code   RO         3945    .ARM.Collect$$_printf_percent$$00000010  c_w.l(_printf_llo.o)
    0x0000d334   0x00000006   Code   RO         3946    .ARM.Collect$$_printf_percent$$00000011  c_w.l(_printf_llx.o)
    0x0000d33a   0x0000000a   Code   RO         3943    .ARM.Collect$$_printf_percent$$00000012  c_w.l(_printf_l.o)
    0x0000d344   0x00000006   Code   RO         3836    .ARM.Collect$$_printf_percent$$00000013  c_w.l(_printf_c.o)
    0x0000d34a   0x00000006   Code   RO         3837    .ARM.Collect$$_printf_percent$$00000014  c_w.l(_printf_s.o)
    0x0000d350   0x00000006   Code   RO         3846    .ARM.Collect$$_printf_percent$$00000015  c_w.l(_printf_lc.o)
    0x0000d356   0x00000006   Code   RO         3944    .ARM.Collect$$_printf_percent$$00000016  c_w.l(_printf_ls.o)
    0x0000d35c   0x00000004   Code   RO         3938    .ARM.Collect$$_printf_percent$$00000017  c_w.l(_printf_percent_end.o)
    0x0000d360   0x00000002   Code   RO         4106    .ARM.Collect$$libinit$$00000000  c_w.l(libinit.o)
    0x0000d362   0x00000004   Code   RO         3962    .ARM.Collect$$libinit$$00000001  c_w.l(libinit2.o)
    0x0000d366   0x00000000   Code   RO         3966    .ARM.Collect$$libinit$$00000008  c_w.l(libinit2.o)
    0x0000d366   0x00000000   Code   RO         3968    .ARM.Collect$$libinit$$0000000A  c_w.l(libinit2.o)
    0x0000d366   0x00000004   Code   RO         3969    .ARM.Collect$$libinit$$0000000B  c_w.l(libinit2.o)
    0x0000d36a   0x00000000   Code   RO         3970    .ARM.Collect$$libinit$$0000000C  c_w.l(libinit2.o)
    0x0000d36a   0x00000006   Code   RO         3971    .ARM.Collect$$libinit$$0000000D  c_w.l(libinit2.o)
    0x0000d370   0x00000000   Code   RO         3973    .ARM.Collect$$libinit$$0000000F  c_w.l(libinit2.o)
    0x0000d370   0x0000000c   Code   RO         3974    .ARM.Collect$$libinit$$00000010  c_w.l(libinit2.o)
    0x0000d37c   0x00000000   Code   RO         3975    .ARM.Collect$$libinit$$00000011  c_w.l(libinit2.o)
    0x0000d37c   0x00000000   Code   RO         3977    .ARM.Collect$$libinit$$00000013  c_w.l(libinit2.o)
    0x0000d37c   0x0000000a   Code   RO         3978    .ARM.Collect$$libinit$$00000014  c_w.l(libinit2.o)
    0x0000d386   0x00000000   Code   RO         3979    .ARM.Collect$$libinit$$00000015  c_w.l(libinit2.o)
    0x0000d386   0x00000000   Code   RO         3981    .ARM.Collect$$libinit$$00000017  c_w.l(libinit2.o)
    0x0000d386   0x00000000   Code   RO         3983    .ARM.Collect$$libinit$$00000019  c_w.l(libinit2.o)
    0x0000d386   0x00000000   Code   RO         3985    .ARM.Collect$$libinit$$0000001B  c_w.l(libinit2.o)
    0x0000d386   0x00000000   Code   RO         3987    .ARM.Collect$$libinit$$0000001D  c_w.l(libinit2.o)
    0x0000d386   0x00000000   Code   RO         3989    .ARM.Collect$$libinit$$0000001F  c_w.l(libinit2.o)
    0x0000d386   0x00000000   Code   RO         3991    .ARM.Collect$$libinit$$00000021  c_w.l(libinit2.o)
    0x0000d386   0x00000000   Code   RO         3993    .ARM.Collect$$libinit$$00000023  c_w.l(libinit2.o)
    0x0000d386   0x00000000   Code   RO         3997    .ARM.Collect$$libinit$$0000002A  c_w.l(libinit2.o)
    0x0000d386   0x00000000   Code   RO         3999    .ARM.Collect$$libinit$$0000002C  c_w.l(libinit2.o)
    0x0000d386   0x00000000   Code   RO         4001    .ARM.Collect$$libinit$$0000002E  c_w.l(libinit2.o)
    0x0000d386   0x00000000   Code   RO         4003    .ARM.Collect$$libinit$$00000030  c_w.l(libinit2.o)
    0x0000d386   0x00000002   Code   RO         4004    .ARM.Collect$$libinit$$00000031  c_w.l(libinit2.o)
    0x0000d388   0x00000002   Code   RO         4145    .ARM.Collect$$libshutdown$$00000000  c_w.l(libshutdown.o)
    0x0000d38a   0x00000000   Code   RO         4152    .ARM.Collect$$libshutdown$$00000003  c_w.l(libshutdown2.o)
    0x0000d38a   0x00000000   Code   RO         4155    .ARM.Collect$$libshutdown$$00000006  c_w.l(libshutdown2.o)
    0x0000d38a   0x00000000   Code   RO         4158    .ARM.Collect$$libshutdown$$00000009  c_w.l(libshutdown2.o)
    0x0000d38a   0x00000000   Code   RO         4160    .ARM.Collect$$libshutdown$$0000000B  c_w.l(libshutdown2.o)
    0x0000d38a   0x00000000   Code   RO         4163    .ARM.Collect$$libshutdown$$0000000E  c_w.l(libshutdown2.o)
    0x0000d38a   0x00000002   Code   RO         4164    .ARM.Collect$$libshutdown$$0000000F  c_w.l(libshutdown2.o)
    0x0000d38c   0x00000000   Code   RO         3909    .ARM.Collect$$rtentry$$00000000  c_w.l(rtentry.o)
    0x0000d38c   0x00000000   Code   RO         4026    .ARM.Collect$$rtentry$$00000002  c_w.l(rtentry2.o)
    0x0000d38c   0x00000006   Code   RO         4038    .ARM.Collect$$rtentry$$00000004  c_w.l(rtentry4.o)
    0x0000d392   0x00000000   Code   RO         4028    .ARM.Collect$$rtentry$$00000009  c_w.l(rtentry2.o)
    0x0000d392   0x00000004   Code   RO         4029    .ARM.Collect$$rtentry$$0000000A  c_w.l(rtentry2.o)
    0x0000d396   0x00000000   Code   RO         4031    .ARM.Collect$$rtentry$$0000000C  c_w.l(rtentry2.o)
    0x0000d396   0x00000008   Code   RO         4032    .ARM.Collect$$rtentry$$0000000D  c_w.l(rtentry2.o)
    0x0000d39e   0x00000002   Code   RO         4113    .ARM.Collect$$rtexit$$00000000  c_w.l(rtexit.o)
    0x0000d3a0   0x00000000   Code   RO         4125    .ARM.Collect$$rtexit$$00000002  c_w.l(rtexit2.o)
    0x0000d3a0   0x00000004   Code   RO         4126    .ARM.Collect$$rtexit$$00000003  c_w.l(rtexit2.o)
    0x0000d3a4   0x00000006   Code   RO         4127    .ARM.Collect$$rtexit$$00000004  c_w.l(rtexit2.o)
    0x0000d3aa   0x00000002   PAD
    0x0000d3ac   0x000000ae   Code   RO          212    .emb_text           port.o
    0x0000d45a   0x00000002   PAD
    0x0000d45c   0x00000006   Code   RO         2714    .emb_text           driverlib.lib(sysctl.o)
    0x0000d462   0x00000002   PAD
    0x0000d464   0x00000026   Code   RO         3710    .emb_text           driverlib.lib(cpu.o)
    0x0000d48a   0x00000002   PAD
    0x0000d48c   0x00000034   Code   RO         3855    .emb_text           c_w.l(rand.o)
    0x0000d4c0   0x00000018   Code   RO            4    .text               startup_rvmdk.o
    0x0000d4d8   0x0000065c   Code   RO           11    .text               bsp.o
    0x0000db34   0x00000094   Code   RO          161    .text               list.o
    0x0000dbc8   0x00000948   Code   RO          173    .text               queue.o
    0x0000e510   0x00000d10   Code   RO          188    .text               tasks.o
    0x0000f220   0x000000f0   Code   RO          213    .text               port.o
    0x0000f310   0x000001b0   Code   RO          230    .text               heap_4.o
    0x0000f4c0   0x00000240   Code   RO          245    .text               main.o
    0x0000f700   0x00000160   Code   RO          301    .text               serial.o
    0x0000f860   0x0000025c   Code   RO          331    .text               osal_console.o
    0x0000fabc   0x000014bc   Code   RO          352    .text               keyboard.o
    0x00010f78   0x000003d4   Code   RO          409    .text               osal_soft_iic.o
    0x0001134c   0x00000110   Code   RO          430    .text               osal_utility.o
    0x0001145c   0x00000170   Code   RO          444    .text               osal_ringbuf.o
    0x000115cc   0x000002a4   Code   RO          461    .text               osal_detect.o
    0x00011870   0x0000076c   Code   RO          477    .text               dsp_app.o
    0x00011fdc   0x00000038   Code   RO          507    .text               console_task.o
    0x00012014   0x00002654   Code   RO          532    .text               system_task.o
    0x00014668   0x00001ad8   Code   RO          655    .text               display_task.o
    0x00016140   0x000003d0   Code   RO          686    .text               lcd_driver.o
    0x00016510   0x00000218   Code   RO          703    .text               eprom_driver.o
    0x00016728   0x00000600   Code   RO          726    .text               ir_driver.o
    0x00016d28   0x0000029c   Code   RO          746    .text               njw1195_driver.o
    0x00016fc4   0x0000021c   Code   RO          768    .text               cs4251x.o
    0x000171e0   0x00000688   Code   RO          783    .text               cs485xx.o
    0x00017868   0x00000110   Code   RO          818    .text               sw_spi.o
    0x00017978   0x00000174   Code   RO          848    .text               enet_fs.o
    0x00017aec   0x0000b494   Code   RO          979    .text               lwiplib.o
    0x00022f80   0x0000280c   Code   RO         1288    .text               web.o
    0x0002578c   0x00001da0   Code   RO         1365    .text               ff.o
    0x0002752c   0x00000858   Code   RO         1391    .text               mmc-dk-tm4c129x.o
    0x00027d84   0x00000118   Code   RO         1516    .text               netconf.o
    0x00027e9c   0x00000010   Code   RO         3760    .text               c_w.l(rt_ctype_table.o)
    0x00027eac   0x00000024   Code   RO         3764    .text               c_w.l(vsprintf.o)
    0x00027ed0   0x00000052   Code   RO         3776    .text               c_w.l(_printf_pad.o)
    0x00027f22   0x00000024   Code   RO         3778    .text               c_w.l(_printf_truncate.o)
    0x00027f46   0x00000052   Code   RO         3780    .text               c_w.l(_printf_str.o)
    0x00027f98   0x00000078   Code   RO         3782    .text               c_w.l(_printf_dec.o)
    0x00028010   0x0000002a   Code   RO         3784    .text               c_w.l(_printf_charcount.o)
    0x0002803a   0x00000002   PAD
    0x0002803c   0x000000bc   Code   RO         3786    .text               c_w.l(_printf_wctomb.o)
    0x000280f8   0x00000078   Code   RO         3793    .text               c_w.l(_printf_oct_int_ll.o)
    0x00028170   0x0000009c   Code   RO         3813    .text               c_w.l(_printf_hex_int_ll_ptr.o)
    0x0002820c   0x0000018c   Code   RO         3833    .text               c_w.l(__printf_flags_ss_wp.o)
    0x00028398   0x0000003c   Code   RO         3847    .text               c_w.l(__0sscanf.o)
    0x000283d4   0x00000150   Code   RO         3849    .text               c_w.l(_scanf_int.o)
    0x00028524   0x0000001a   Code   RO         3851    .text               c_w.l(atoi.o)
    0x0002853e   0x00000002   PAD
    0x00028540   0x0000003c   Code   RO         3856    .text               c_w.l(rand.o)
    0x0002857c   0x0000000c   Code   RO         3860    .text               c_w.l(strtok.o)
    0x00028588   0x00000014   Code   RO         3863    .text               c_w.l(strchr.o)
    0x0002859c   0x00000024   Code   RO         3865    .text               c_w.l(strstr.o)
    0x000285c0   0x00000058   Code   RO         3867    .text               c_w.l(memcmp.o)
    0x00028618   0x0000003e   Code   RO         3871    .text               c_w.l(strlen.o)
    0x00028656   0x00000096   Code   RO         3873    .text               c_w.l(strncmp.o)
    0x000286ec   0x00000018   Code   RO         3875    .text               c_w.l(strcat.o)
    0x00028704   0x0000008a   Code   RO         3877    .text               c_w.l(rt_memcpy_v6.o)
    0x0002878e   0x00000064   Code   RO         3879    .text               c_w.l(rt_memcpy_w.o)
    0x000287f2   0x00000010   Code   RO         3881    .text               c_w.l(aeabi_memset.o)
    0x00028802   0x00000044   Code   RO         3883    .text               c_w.l(rt_memclr.o)
    0x00028846   0x0000004e   Code   RO         3885    .text               c_w.l(rt_memclr_w.o)
    0x00028894   0x00000080   Code   RO         3889    .text               c_w.l(strcmpv7m.o)
    0x00028914   0x00000006   Code   RO         3891    .text               c_w.l(heapauxi.o)
    0x0002891a   0x00000002   PAD
    0x0002891c   0x00000008   Code   RO         3913    .text               c_w.l(rt_locale_intlibspace.o)
    0x00028924   0x00000008   Code   RO         3918    .text               c_w.l(rt_errno_addr_intlibspace.o)
    0x0002892c   0x000000b8   Code   RO         3920    .text               c_w.l(_printf_intcommon.o)
    0x000289e4   0x00000030   Code   RO         3922    .text               c_w.l(_printf_char_common.o)
    0x00028a14   0x0000000a   Code   RO         3924    .text               c_w.l(_sputc.o)
    0x00028a1e   0x0000002c   Code   RO         3928    .text               c_w.l(_printf_char.o)
    0x00028a4a   0x0000002c   Code   RO         3930    .text               c_w.l(_printf_wchar.o)
    0x00028a76   0x00000002   PAD
    0x00028a78   0x00000078   Code   RO         3932    .text               c_w.l(_printf_longlong_dec.o)
    0x00028af0   0x0000001c   Code   RO         3947    .text               c_w.l(_chval.o)
    0x00028b0c   0x0000002c   Code   RO         3949    .text               c_w.l(scanf_char.o)
    0x00028b38   0x00000040   Code   RO         3951    .text               c_w.l(_sgetc.o)
    0x00028b78   0x00000070   Code   RO         3953    .text               c_w.l(strtol.o)
    0x00028be8   0x00000040   Code   RO         3955    .text               c_w.l(_wcrtomb.o)
    0x00028c28   0x00000044   Code   RO         3960    .text               c_w.l(strtok_int.o)
    0x00028c6c   0x00000008   Code   RO         4022    .text               c_w.l(libspace.o)
    0x00028c74   0x0000008a   Code   RO         4040    .text               c_w.l(lludiv10.o)
    0x00028cfe   0x00000012   Code   RO         4042    .text               c_w.l(isspace.o)
    0x00028d10   0x00000420   Code   RO         4044    .text               c_w.l(_printf_fp_dec.o)
    0x00029130   0x00000300   Code   RO         4046    .text               c_w.l(_printf_fp_hex.o)
    0x00029430   0x00000370   Code   RO         4051    .text               c_w.l(_scanf.o)
    0x000297a0   0x0000009e   Code   RO         4053    .text               c_w.l(_strtoul.o)
    0x0002983e   0x00000020   Code   RO         4055    .text               c_w.l(strcspn.o)
    0x0002985e   0x0000001c   Code   RO         4057    .text               c_w.l(strspn.o)
    0x0002987a   0x0000004a   Code   RO         4063    .text               c_w.l(sys_stackheap_outer.o)
    0x000298c4   0x00000080   Code   RO         4065    .text               c_w.l(_printf_fp_infnan.o)
    0x00029944   0x000000e4   Code   RO         4067    .text               c_w.l(bigflt0.o)
    0x00029a28   0x0000000c   Code   RO         4095    .text               c_w.l(exit.o)
    0x00029a34   0x00000002   Code   RO         4121    .text               c_w.l(use_no_semi.o)
    0x00029a36   0x00000000   Code   RO         4123    .text               c_w.l(indicate_semi.o)
    0x00029a36   0x00000002   PAD
    0x00029a38   0x0000000c   Code   RO         4137    .text               c_w.l(sys_exit.o)
    0x00029a44   0x0000003e   Code   RO         4070    CL$$btod_d2e        c_w.l(btod.o)
    0x00029a82   0x00000046   Code   RO         4072    CL$$btod_d2e_denorm_low  c_w.l(btod.o)
    0x00029ac8   0x00000060   Code   RO         4071    CL$$btod_d2e_norm_op1  c_w.l(btod.o)
    0x00029b28   0x00000338   Code   RO         4080    CL$$btod_div_common  c_w.l(btod.o)
    0x00029e60   0x000000c6   Code   RO         4077    CL$$btod_e2e        c_w.l(btod.o)
    0x00029f26   0x00000028   Code   RO         4074    CL$$btod_ediv       c_w.l(btod.o)
    0x00029f4e   0x00000028   Code   RO         4073    CL$$btod_emul       c_w.l(btod.o)
    0x00029f76   0x00000244   Code   RO         4079    CL$$btod_mult_common  c_w.l(btod.o)
    0x0002a1ba   0x0000001e   Code   RO         1585    i.EMACAddrGet       driverlib.lib(emac.o)
    0x0002a1d8   0x00000022   Code   RO         1586    i.EMACAddrSet       driverlib.lib(emac.o)
    0x0002a1fa   0x00000002   PAD
    0x0002a1fc   0x00000044   Code   RO         1587    i.EMACConfigGet     driverlib.lib(emac.o)
    0x0002a240   0x00000038   Code   RO         1588    i.EMACConfigSet     driverlib.lib(emac.o)
    0x0002a278   0x00000010   Code   RO         1591    i.EMACFrameFilterSet  driverlib.lib(emac.o)
    0x0002a288   0x00000088   Code   RO         1595    i.EMACInit          driverlib.lib(emac.o)
    0x0002a310   0x0000003e   Code   RO         1596    i.EMACIntClear      driverlib.lib(emac.o)
    0x0002a34e   0x0000003e   Code   RO         1597    i.EMACIntDisable    driverlib.lib(emac.o)
    0x0002a38c   0x00000046   Code   RO         1598    i.EMACIntEnable     driverlib.lib(emac.o)
    0x0002a3d2   0x0000002e   Code   RO         1600    i.EMACIntStatus     driverlib.lib(emac.o)
    0x0002a400   0x00000088   Code   RO         1603    i.EMACPHYConfigSet  driverlib.lib(emac.o)
    0x0002a488   0x0000002a   Code   RO         1608    i.EMACPHYRead       driverlib.lib(emac.o)
    0x0002a4b2   0x0000002a   Code   RO         1609    i.EMACPHYWrite      driverlib.lib(emac.o)
    0x0002a4dc   0x00000006   Code   RO         1619    i.EMACRxDMADescriptorListSet  driverlib.lib(emac.o)
    0x0002a4e2   0x00000016   Code   RO         1622    i.EMACRxEnable      driverlib.lib(emac.o)
    0x0002a4f8   0x00000006   Code   RO         1630    i.EMACTimestampIntStatus  driverlib.lib(emac.o)
    0x0002a4fe   0x00000006   Code   RO         1644    i.EMACTxDMADescriptorListSet  driverlib.lib(emac.o)
    0x0002a504   0x00000008   Code   RO         1645    i.EMACTxDMAPollDemand  driverlib.lib(emac.o)
    0x0002a50c   0x00000016   Code   RO         1647    i.EMACTxEnable      driverlib.lib(emac.o)
    0x0002a522   0x00000028   Code   RO         2059    i.GPIODirModeSet    driverlib.lib(gpio.o)
    0x0002a54a   0x00000006   Code   RO         2060    i.GPIOIntClear      driverlib.lib(gpio.o)
    0x0002a550   0x0000000e   Code   RO         2062    i.GPIOIntEnable     driverlib.lib(gpio.o)
    0x0002a55e   0x0000000e   Code   RO         2064    i.GPIOIntStatus     driverlib.lib(gpio.o)
    0x0002a56c   0x00000050   Code   RO         2066    i.GPIOIntTypeSet    driverlib.lib(gpio.o)
    0x0002a5bc   0x0000013e   Code   RO         2069    i.GPIOPadConfigSet  driverlib.lib(gpio.o)
    0x0002a6fa   0x00000002   PAD
    0x0002a6fc   0x00000048   Code   RO         2070    i.GPIOPinConfigure  driverlib.lib(gpio.o)
    0x0002a744   0x00000006   Code   RO         2071    i.GPIOPinRead       driverlib.lib(gpio.o)
    0x0002a74a   0x0000001c   Code   RO         2077    i.GPIOPinTypeEthernetLED  driverlib.lib(gpio.o)
    0x0002a766   0x0000001c   Code   RO         2080    i.GPIOPinTypeGPIOInput  driverlib.lib(gpio.o)
    0x0002a782   0x0000001c   Code   RO         2081    i.GPIOPinTypeGPIOOutput  driverlib.lib(gpio.o)
    0x0002a79e   0x0000001c   Code   RO         2092    i.GPIOPinTypePWM    driverlib.lib(gpio.o)
    0x0002a7ba   0x0000001c   Code   RO         2096    i.GPIOPinTypeUART   driverlib.lib(gpio.o)
    0x0002a7d6   0x00000006   Code   RO         2102    i.GPIOPinWrite      driverlib.lib(gpio.o)
    0x0002a7dc   0x00000064   Code   RO         2365    i.IntDisable        driverlib.lib(interrupt.o)
    0x0002a840   0x00000064   Code   RO         2366    i.IntEnable         driverlib.lib(interrupt.o)
    0x0002a8a4   0x0000000e   Code   RO         2369    i.IntMasterEnable   driverlib.lib(interrupt.o)
    0x0002a8b2   0x00000002   PAD
    0x0002a8b4   0x00000028   Code   RO         2377    i.IntPrioritySet    driverlib.lib(interrupt.o)
    0x0002a8dc   0x00000016   Code   RO         2482    i.PWMClockSet       driverlib.lib(pwm.o)
    0x0002a8f2   0x00000026   Code   RO         2489    i.PWMGenConfigure   driverlib.lib(pwm.o)
    0x0002a918   0x0000000a   Code   RO         2491    i.PWMGenEnable      driverlib.lib(pwm.o)
    0x0002a922   0x00000012   Code   RO         2503    i.PWMGenPeriodGet   driverlib.lib(pwm.o)
    0x0002a934   0x00000012   Code   RO         2504    i.PWMGenPeriodSet   driverlib.lib(pwm.o)
    0x0002a946   0x00000010   Code   RO         2511    i.PWMOutputState    driverlib.lib(pwm.o)
    0x0002a956   0x00000020   Code   RO         2514    i.PWMPulseWidthSet  driverlib.lib(pwm.o)
    0x0002a976   0x00000002   PAD
    0x0002a978   0x000002c8   Code   RO         2718    i.SysCtlClockFreqSet  driverlib.lib(sysctl.o)
    0x0002ac40   0x00000020   Code   RO         2722    i.SysCtlDeepSleep   driverlib.lib(sysctl.o)
    0x0002ac60   0x00000028   Code   RO         2750    i.SysCtlPeripheralEnable  driverlib.lib(sysctl.o)
    0x0002ac88   0x0000002c   Code   RO         2753    i.SysCtlPeripheralPresent  driverlib.lib(sysctl.o)
    0x0002acb4   0x0000002c   Code   RO         2754    i.SysCtlPeripheralReady  driverlib.lib(sysctl.o)
    0x0002ace0   0x0000003c   Code   RO         2755    i.SysCtlPeripheralReset  driverlib.lib(sysctl.o)
    0x0002ad1c   0x00000060   Code   RO         3069    i.TimerConfigure    driverlib.lib(timer.o)
    0x0002ad7c   0x0000000e   Code   RO         3078    i.TimerEnable       driverlib.lib(timer.o)
    0x0002ad8a   0x00000004   Code   RO         3079    i.TimerIntClear     driverlib.lib(timer.o)
    0x0002ad8e   0x00000008   Code   RO         3081    i.TimerIntEnable    driverlib.lib(timer.o)
    0x0002ad96   0x00000012   Code   RO         3087    i.TimerLoadSet      driverlib.lib(timer.o)
    0x0002ada8   0x0000000a   Code   RO         3100    i.TimerValueGet     driverlib.lib(timer.o)
    0x0002adb2   0x00000010   Code   RO         3308    i.UARTCharGetNonBlocking  driverlib.lib(uart.o)
    0x0002adc2   0x00000010   Code   RO         3310    i.UARTCharPutNonBlocking  driverlib.lib(uart.o)
    0x0002add2   0x0000000a   Code   RO         3311    i.UARTCharsAvail    driverlib.lib(uart.o)
    0x0002addc   0x0000006e   Code   RO         3315    i.UARTConfigSetExpClk  driverlib.lib(uart.o)
    0x0002ae4a   0x00000014   Code   RO         3320    i.UARTEnable        driverlib.lib(uart.o)
    0x0002ae5e   0x00000004   Code   RO         3328    i.UARTIntClear      driverlib.lib(uart.o)
    0x0002ae62   0x00000008   Code   RO         3330    i.UARTIntEnable     driverlib.lib(uart.o)
    0x0002ae6a   0x0000000a   Code   RO         3332    i.UARTIntStatus     driverlib.lib(uart.o)
    0x0002ae74   0x0000000a   Code   RO         3590    i.WatchdogEnable    driverlib.lib(watchdog.o)
    0x0002ae7e   0x00000004   Code   RO         3600    i.WatchdogReloadSet  driverlib.lib(watchdog.o)
    0x0002ae82   0x0000000a   Code   RO         3602    i.WatchdogResetEnable  driverlib.lib(watchdog.o)
    0x0002ae8c   0x00000030   Code   RO         4109    i.__ARM_fpclassify  m_wm.l(fpclassify.o)
    0x0002aebc   0x0000000e   Code   RO         3826    i._is_digit         c_w.l(__printf_wp.o)
    0x0002aeca   0x00000002   PAD
    0x0002aecc   0x0000002c   Code   RO         3958    locale$$code        c_w.l(lc_ctype_c.o)
    0x0002aef8   0x0000002c   Code   RO         4093    locale$$code        c_w.l(lc_numeric_c.o)
    0x0002af24   0x00000062   Code   RO         3895    x$fpl$d2f           fz_wm.l(d2f.o)
    0x0002af86   0x00000002   PAD
    0x0002af88   0x000002b0   Code   RO         3898    x$fpl$ddiv          fz_wm.l(ddiv.o)
    0x0002b238   0x0000002e   Code   RO         3902    x$fpl$dflt          fz_wm.l(dflt_clz.o)
    0x0002b266   0x00000026   Code   RO         3901    x$fpl$dfltu         fz_wm.l(dflt_clz.o)
    0x0002b28c   0x0000009c   Code   RO         4005    x$fpl$dnaninf       fz_wm.l(dnaninf.o)
    0x0002b328   0x0000000c   Code   RO         4007    x$fpl$dretinf       fz_wm.l(dretinf.o)
    0x0002b334   0x00000056   Code   RO         3907    x$fpl$f2d           fz_wm.l(f2d.o)
    0x0002b38a   0x0000008c   Code   RO         4009    x$fpl$fnaninf       fz_wm.l(fnaninf.o)
    0x0002b416   0x0000000a   Code   RO         4061    x$fpl$fpinit        fz_wm.l(fpinit.o)
    0x0002b420   0x0000000a   Code   RO         4011    x$fpl$fretinf       fz_wm.l(fretinf.o)
    0x0002b42a   0x00000004   Code   RO         4013    x$fpl$printf1       fz_wm.l(printf1.o)
    0x0002b42e   0x00000004   Code   RO         4015    x$fpl$printf2       fz_wm.l(printf2.o)
    0x0002b432   0x00000000   Code   RO         4021    x$fpl$usenofp       fz_wm.l(usenofp.o)
    0x0002b432   0x00000014   Data   RO          190    .constdata          tasks.o
    0x0002b446   0x0000000a   Data   RO          353    .constdata          keyboard.o
    0x0002b450   0x00000025   Data   RO          410    .constdata          osal_soft_iic.o
    0x0002b475   0x00000003   PAD
    0x0002b478   0x00000400   Data   RO          431    .constdata          osal_utility.o
    0x0002b878   0x00000048   Data   RO          445    .constdata          osal_ringbuf.o
    0x0002b8c0   0x00000014   Data   RO          462    .constdata          osal_detect.o
    0x0002b8d4   0x000018e7   Data   RO          478    .constdata          dsp_app.o
    0x0002d1bb   0x00000001   PAD
    0x0002d1bc   0x000005af   Data   RO          534    .constdata          system_task.o
    0x0002d76b   0x00000001   PAD
    0x0002d76c   0x000001b0   Data   RO          657    .constdata          display_task.o
    0x0002d91c   0x00000019   Data   RO          704    .constdata          eprom_driver.o
    0x0002d935   0x0000000f   Data   RO          728    .constdata          ir_driver.o
    0x0002d944   0x00003fc4   Data   RO          784    .constdata          cs485xx.o
    0x00031908   0x00056c48   Data   RO          850    .constdata          enet_fs.o
    0x00088550   0x000000cc   Data   RO          981    .constdata          lwiplib.o
    0x0008861c   0x000009e3   Data   RO         1290    .constdata          web.o
    0x00088fff   0x00000001   PAD
    0x00089000   0x00000018   Data   RO         1656    .constdata          driverlib.lib(emac.o)
    0x00089018   0x00000210   Data   RO         2103    .constdata          driverlib.lib(gpio.o)
    0x00089228   0x0000010c   Data   RO         2382    .constdata          driverlib.lib(interrupt.o)
    0x00089334   0x000001cc   Data   RO         2771    .constdata          driverlib.lib(sysctl.o)
    0x00089500   0x00000008   Data   RO         3787    .constdata          c_w.l(_printf_wctomb.o)
    0x00089508   0x00000028   Data   RO         3814    .constdata          c_w.l(_printf_hex_int_ll_ptr.o)
    0x00089530   0x00000011   Data   RO         3834    .constdata          c_w.l(__printf_flags_ss_wp.o)
    0x00089541   0x00000026   Data   RO         4047    .constdata          c_w.l(_printf_fp_hex.o)
    0x00089567   0x00000001   PAD
    0x00089568   0x00000094   Data   RO         4068    .constdata          c_w.l(bigflt0.o)
    0x000895fc   0x00000007   Data   RO          246    .conststring        main.o
    0x00089603   0x0000005b   Data   RO          535    .conststring        system_task.o
    0x0008965e   0x00000176   Data   RO          658    .conststring        display_task.o
    0x000897d4   0x000001fd   Data   RO          982    .conststring        lwiplib.o
    0x000899d1   0x000003f6   Data   RO         1291    .conststring        web.o
    0x00089dc7   0x00000020   Data   RO          332    .conststrlit        osal_console.o
    0x00089de7   0x00000017   Data   RO          536    .conststrlit        system_task.o
    0x00089dfe   0x00000083   Data   RO          659    .conststrlit        display_task.o
    0x00089e81   0x0000002d   Data   RO          705    .conststrlit        eprom_driver.o
    0x00089eae   0x00000012   Data   RO          747    .conststrlit        njw1195_driver.o
    0x00089ec0   0x00000020   Data   RO         4181    Region$$Table       anon$$obj.o
    0x00089ee0   0x00000110   Data   RO         3957    locale$$data        c_w.l(lc_ctype_c.o)
    0x00089ff0   0x0000001c   Data   RO         4092    locale$$data        c_w.l(lc_numeric_c.o)


    Execution Region INIT_SECTION (Base: 0x0008a00c, Size: 0x000000a0, Max: 0xffffffff, ABSOLUTE)

    Base Addr    Size         Type   Attr      Idx    E Section Name        Object

    0x0008a00c   0x00000010   Data   RO          333    INIT_CMD            osal_console.o
    0x0008a01c   0x00000010   Data   RO          538    INIT_CMD            system_task.o
    0x0008a02c   0x00000050   Data   RO          661    INIT_CMD            display_task.o
    0x0008a07c   0x00000020   Data   RO          706    INIT_CMD            eprom_driver.o
    0x0008a09c   0x00000010   Data   RO          748    INIT_CMD            njw1195_driver.o


    Execution Region RW_IRAM1 (Base: 0x20000000, Size: 0x000291b8, Max: 0x00040000, ABSOLUTE, COMPRESSED[0x000001b8])

    Base Addr    Size         Type   Attr      Idx    E Section Name        Object

    0x20000000   0x00000002   Data   RW           12    .data               bsp.o
    0x20000002   0x00000002   PAD
    0x20000004   0x0000003c   Data   RW          191    .data               tasks.o
    0x20000040   0x00000004   Data   RW          214    .data               port.o
    0x20000044   0x00000014   Data   RW          232    .data               heap_4.o
    0x20000058   0x00000008   Data   RW          247    .data               main.o
    0x20000060   0x00000001   Data   RW          303    .data               serial.o
    0x20000061   0x00000003   PAD
    0x20000064   0x000000ab   Data   RW          354    .data               keyboard.o
    0x2000010f   0x00000001   PAD
    0x20000110   0x00000014   Data   RW          411    .data               osal_soft_iic.o
    0x20000124   0x0000000c   Data   RW          446    .data               osal_ringbuf.o
    0x20000130   0x000000a0   Data   RW          463    .data               osal_detect.o
    0x200001d0   0x00000029   Data   RW          537    .data               system_task.o
    0x200001f9   0x00000003   PAD
    0x200001fc   0x00000014   Data   RW          660    .data               display_task.o
    0x20000210   0x00000041   Data   RW          687    .data               lcd_driver.o
    0x20000251   0x00000001   PAD
    0x20000252   0x00000018   Data   RW          729    .data               ir_driver.o
    0x2000026a   0x00000002   PAD
    0x2000026c   0x00000004   Data   RW          851    .data               enet_fs.o
    0x20000270   0x00000164   Data   RW          983    .data               lwiplib.o
    0x200003d4   0x00000048   Data   RW         1292    .data               web.o
    0x2000041c   0x00000006   Data   RW         1366    .data               ff.o
    0x20000422   0x00000005   Data   RW         1392    .data               mmc-dk-tm4c129x.o
    0x20000427   0x00000001   PAD
    0x20000428   0x00000004   Data   RW         3861    .data               c_w.l(strtok.o)
    0x2000042c   0x00000050   Zero   RW          174    .bss                queue.o
    0x2000047c   0x0000012c   Zero   RW          189    .bss                tasks.o
    0x200005a8   0x0000b000   Zero   RW          231    .bss                heap_4.o
    0x2000b5a8   0x0000028c   Zero   RW          302    .bss                serial.o
    0x2000b834   0x00000054   Zero   RW          533    .bss                system_task.o
    0x2000b888   0x00000108   Zero   RW          656    .bss                display_task.o
    0x2000b990   0x00000430   Zero   RW          727    .bss                ir_driver.o
    0x2000bdc0   0x00000234   Zero   RW          849    .bss                enet_fs.o
    0x2000bff4   0x00019e24   Zero   RW          980    .bss                lwiplib.o
    0x20025e18   0x00001200   Zero   RW         1289    .bss                web.o
    0x20027018   0x00000058   Zero   RW         1517    .bss                netconf.o
    0x20027070   0x000000e4   Zero   RW         3857    .bss                c_w.l(rand.o)
    0x20027154   0x00000060   Zero   RW         4023    .bss                c_w.l(libspace.o)
    0x200271b4   0x00000004   PAD
    0x200271b8   0x00000000   Zero   RW            2    HEAP                startup_rvmdk.o
    0x200271b8   0x00002000   Zero   RW            1    STACK               startup_rvmdk.o


==============================================================================

Image component sizes


      Code (inc. data)   RO Data    RW Data    ZI Data      Debug   Object Name

      1628        138          0          2          0       7652   bsp.o
        56         26          0          0          0       1587   console_task.o
         0          0          0          0          0        444   croutine.o
       540         62          0          0          0       1671   cs4251x.o
      1672        332      16324          0          0       6372   cs485xx.o
      6872       2164       1017         20        264      13284   display_task.o
      1900        294       6375          0          0       7595   dsp_app.o
       372         20     355400          4        564      15026   enet_fs.o
       536        148        102          0          0       2868   eprom_driver.o
      7584         42          0          6          0      25396   ff.o
       432         22          0         20      45056       3040   heap_4.o
      1536        166         15         24       1072       4064   ir_driver.o
      5308        284         10        171          0      17646   keyboard.o
       976         90          0         65          0       2793   lcd_driver.o
       148          0          0          0          0       1882   list.o
     46228       1524        713        356     106020     197765   lwiplib.o
       576        340          7          8          0       3011   main.o
      2136         72          0          5          0       8549   mmc-dk-tm4c129x.o
       280          4          0          0         88       3330   netconf.o
       668         90         34          0          0       3275   njw1195_driver.o
       604        236         48          0          0       3200   osal_console.o
       676         68         20        160          0       1779   osal_detect.o
       368         74         72         12          0       2352   osal_ringbuf.o
       980        110         37         20          0       4439   osal_soft_iic.o
       272         18       1024          0          0       2156   osal_utility.o
       414         40          0          4          0       2907   port.o
      2376          6          0          0         80      13077   queue.o
       352         38          0          1        652       7936   serial.o
       564        528          0          0       8192        492   startup_rvmdk.o
       272          8          0          0          0       2615   sw_spi.o
      9812       2238       1585         41         84      31537   system_task.o
      3344        220         20         60        300      15396   tasks.o
         0          0          0          0          0       9328   timers.o
         0          0          0          0          0       6408   upnpweb.o
     10252       2526       3545         72       4608      48593   web.o

    ----------------------------------------------------------------------
    109736      11928     386386       1064     166980     479465   Object Totals
         0          0         32          0          0          0   (incl. Generated)
         2          0          6         13          0          0   (incl. Padding)

    ----------------------------------------------------------------------

      Code (inc. data)   RO Data    RW Data    ZI Data      Debug   Library Member Name

        60          8          0          0          0         84   __0sscanf.o
        90          0          0          0          0          0   __dczerorl2.o
         8          0          0          0          0         68   __main.o
       396          6         17          0          0         92   __printf_flags_ss_wp.o
        14          0          0          0          0         68   __printf_wp.o
        52          8          0          0          0          0   __scatter.o
        28          0          0          0          0          0   __scatter_zi.o
        28          0          0          0          0         68   _chval.o
         6          0          0          0          0          0   _printf_a.o
         6          0          0          0          0          0   _printf_c.o
        44          0          0          0          0        108   _printf_char.o
        48          6          0          0          0         96   _printf_char_common.o
        42          0          0          0          0         68   _printf_charcount.o
         6          0          0          0          0          0   _printf_d.o
       120         18          0          0          0         92   _printf_dec.o
         6          0          0          0          0          0   _printf_e.o
         6          0          0          0          0          0   _printf_f.o
      1056          0          0          0          0        216   _printf_fp_dec.o
       768          8         38          0          0        100   _printf_fp_hex.o
       128         16          0          0          0         84   _printf_fp_infnan.o
         6          0          0          0          0          0   _printf_g.o
       156          6         40          0          0        160   _printf_hex_int_ll_ptr.o
         6          0          0          0          0          0   _printf_i.o
       184          0          0          0          0         88   _printf_intcommon.o
        10          0          0          0          0          0   _printf_l.o
         6          0          0          0          0          0   _printf_lc.o
        10          0          0          0          0          0   _printf_ll.o
         6          0          0          0          0          0   _printf_lld.o
         6          0          0          0          0          0   _printf_lli.o
         6          0          0          0          0          0   _printf_llo.o
         6          0          0          0          0          0   _printf_llu.o
         6          0          0          0          0          0   _printf_llx.o
       120         16          0          0          0         92   _printf_longlong_dec.o
         6          0          0          0          0          0   _printf_ls.o
         6          0          0          0          0          0   _printf_n.o
         6          0          0          0          0          0   _printf_o.o
       120          8          0          0          0        124   _printf_oct_int_ll.o
         6          0          0          0          0          0   _printf_p.o
        82          0          0          0          0        108   _printf_pad.o
         0          0          0          0          0          0   _printf_percent.o
         4          0          0          0          0          0   _printf_percent_end.o
         6          0          0          0          0          0   _printf_s.o
        82          0          0          0          0         80   _printf_str.o
        36          0          0          0          0         84   _printf_truncate.o
         6          0          0          0          0          0   _printf_u.o
        44          0          0          0          0        108   _printf_wchar.o
       188          6          8          0          0         92   _printf_wctomb.o
         6          0          0          0          0          0   _printf_x.o
       880          4          0          0          0        100   _scanf.o
       336          0          0          0          0         96   _scanf_int.o
        64          0          0          0          0         84   _sgetc.o
        10          0          0          0          0         68   _sputc.o
       158          0          0          0          0         92   _strtoul.o
        64          0          0          0          0         92   _wcrtomb.o
        16          0          0          0          0         68   aeabi_memset.o
        26          0          0          0          0         80   atoi.o
       228          6        148          0          0         96   bigflt0.o
      1910        128          0          0          0        672   btod.o
        12          0          0          0          0         72   exit.o
         6          0          0          0          0        152   heapauxi.o
         0          0          0          0          0          0   indicate_semi.o
        18          0          0          0          0         76   isspace.o
        44         10        272          0          0         76   lc_ctype_c.o
        44         10         28          0          0         76   lc_numeric_c.o
         2          0          0          0          0          0   libinit.o
        38          0          0          0          0          0   libinit2.o
         2          0          0          0          0          0   libshutdown.o
         2          0          0          0          0          0   libshutdown2.o
         8          4          0          0         96         68   libspace.o
       138          0          0          0          0         80   lludiv10.o
        88          0          0          0          0         76   memcmp.o
       112         18          0          0        228        160   rand.o
        16          4          0          0          0         76   rt_ctype_table.o
         8          4          0          0          0         68   rt_errno_addr_intlibspace.o
         8          4          0          0          0         68   rt_locale_intlibspace.o
        68          0          0          0          0         68   rt_memclr.o
        78          0          0          0          0         80   rt_memclr_w.o
       138          0          0          0          0         68   rt_memcpy_v6.o
       100          0          0          0          0         80   rt_memcpy_w.o
         0          0          0          0          0          0   rtentry.o
        12          0          0          0          0          0   rtentry2.o
         6          0          0          0          0          0   rtentry4.o
         2          0          0          0          0          0   rtexit.o
        10          0          0          0          0          0   rtexit2.o
        44          8          0          0          0         84   scanf_char.o
        24          0          0          0          0         68   strcat.o
        20          0          0          0          0         68   strchr.o
       128          0          0          0          0         68   strcmpv7m.o
        32          0          0          0          0         80   strcspn.o
        62          0          0          0          0         76   strlen.o
       150          0          0          0          0         80   strncmp.o
        28          0          0          0          0         80   strspn.o
        36          0          0          0          0         80   strstr.o
        12          6          0          4          0         68   strtok.o
        68          4          0          0          0         84   strtok_int.o
       112          0          0          0          0         88   strtol.o
        12          4          0          0          0         68   sys_exit.o
        74          0          0          0          0         80   sys_stackheap_outer.o
         2          0          0          0          0         68   use_no_semi.o
        36          4          0          0          0         76   vsprintf.o
        38          0          0          0          0        504   cpu.o
       870         44         24          0          0      27963   emac.o
       696          8        528          0          0       7815   gpio.o
       254         20        268          0          0       2768   interrupt.o
       154          0          0          0          0       3219   pwm.o
       938         62        460          0          0       5850   sysctl.o
       150          8          0          0          0       2723   timer.o
       194          0          0          0          0       4481   uart.o
        24          0          0          0          0       1279   watchdog.o
        98          4          0          0          0        140   d2f.o
       688        140          0          0          0        256   ddiv.o
        84          0          0          0          0        232   dflt_clz.o
       156          4          0          0          0        140   dnaninf.o
        12          0          0          0          0        116   dretinf.o
        86          4          0          0          0        132   f2d.o
       140          4          0          0          0        132   fnaninf.o
        10          0          0          0          0        116   fpinit.o
        10          0          0          0          0        116   fretinf.o
         4          0          0          0          0        116   printf1.o
         4          0          0          0          0        116   printf2.o
         0          0          0          0          0          0   usenofp.o
        48          0          0          0          0        124   fpclassify.o

    ----------------------------------------------------------------------
     14218        622       1832          4        328      64426   Library Totals
        30          0          1          0          4          0   (incl. Padding)

    ----------------------------------------------------------------------

      Code (inc. data)   RO Data    RW Data    ZI Data      Debug   Library Name

      9530        324        551          4        324       6088   c_w.l
      3318        142       1280          0          0      56602   driverlib.lib
      1292        156          0          0          0       1612   fz_wm.l
        48          0          0          0          0        124   m_wm.l

    ----------------------------------------------------------------------
     14218        622       1832          4        328      64426   Library Totals

    ----------------------------------------------------------------------

==============================================================================


      Code (inc. data)   RO Data    RW Data    ZI Data      Debug   

    123954      12550     388218       1068     167308     526651   Grand Totals
    123954      12550     388218        440     167308     526651   ELF Image Totals (compressed)
    123954      12550     388218        440          0          0   ROM Totals

==============================================================================

    Total RO  Size (Code + RO Data)               512172 ( 500.17kB)
    Total RW  Size (RW Data + ZI Data)            168376 ( 164.43kB)
    Total ROM Size (Code + RO Data + RW Data)     512612 ( 500.60kB)

==============================================================================

